      Line     Address      Opcode      Label        DisAssy     
       1    0000         040200                GOTO 0x200        
       2    0002         000000                NOP               
       3    0004         0023EE                NOP               
       4    0006         0023B6                NOP               
       5    0008         0023BE                NOP               
       6    000A         0023C6                NOP               
       7    000C         0023CE                NOP               
       8    000E         0023EE                NOP               
       9    0010         0023EE                NOP               
      10    0012         0023EE                NOP               
      11    0014         0023EE                NOP               
      12    0016         0023EE                NOP               
      13    0018         0023EE                NOP               
      14    001A         001D4A                NOP               
      15    001C         0023EE                NOP               
      16    001E         0023EE                NOP               
      17    0020         0023EE                NOP               
      18    0022         0023EE                NOP               
      19    0024         0023EE                NOP               
      20    0026         0023EE                NOP               
      21    0028         0023EE                NOP               
      22    002A         0010FC                NOP               
      23    002C         0023EE                NOP               
      24    002E         0023EE                NOP               
      25    0030         0023EE                NOP               
      26    0032         0023EE                NOP               
      27    0034         0023EE                NOP               
      28    0036         0023EE                NOP               
      29    0038         00100C                NOP               
      30    003A         0023EE                NOP               
      31    003C         0023EE                NOP               
      32    003E         0023EE                NOP               
      33    0040         0023EE                NOP               
      34    0042         0023EE                NOP               
      35    0044         0023EE                NOP               
      36    0046         0023EE                NOP               
      37    0048         0023EE                NOP               
      38    004A         0023EE                NOP               
      39    004C         0023EE                NOP               
      40    004E         0023EE                NOP               
      41    0050         0023EE                NOP               
      42    0052         0023EE                NOP               
      43    0054         0023EE                NOP               
      44    0056         0023EE                NOP               
      45    0058         0023EE                NOP               
      46    005A         0023EE                NOP               
      47    005C         0023EE                NOP               
      48    005E         0023EE                NOP               
      49    0060         0023EE                NOP               
      50    0062         0023EE                NOP               
      51    0064         0023EE                NOP               
      52    0066         0023EE                NOP               
      53    0068         0023EE                NOP               
      54    006A         0023EE                NOP               
      55    006C         0023EE                NOP               
      56    006E         0023EE                NOP               
      57    0070         0023EE                NOP               
      58    0072         0023EE                NOP               
      59    0074         0023EE                NOP               
      60    0076         0023EE                NOP               
      61    0078         0023EE                NOP               
      62    007A         0023EE                NOP               
      63    007C         0023EE                NOP               
      64    007E         0023EE                NOP               
      65    0080         0023EE                NOP               
      66    0082         0023EE                NOP               
      67    0084         0023EE                NOP               
      68    0086         0023EE                NOP               
      69    0088         0023EE                NOP               
      70    008A         0023EE                NOP               
      71    008C         0023EE                NOP               
      72    008E         0023EE                NOP               
      73    0090         0023EE                NOP               
      74    0092         0023EE                NOP               
      75    0094         0023EE                NOP               
      76    0096         0023EE                NOP               
      77    0098         0023EE                NOP               
      78    009A         0023EE                NOP               
      79    009C         0023EE                NOP               
      80    009E         0023EE                NOP               
      81    00A0         0023EE                NOP               
      82    00A2         0023EE                NOP               
      83    00A4         0023EE                NOP               
      84    00A6         0023EE                NOP               
      85    00A8         0023EE                NOP               
      86    00AA         0023EE                NOP               
      87    00AC         0023EE                NOP               
      88    00AE         0023EE                NOP               
      89    00B0         0023EE                NOP               
      90    00B2         0023EE                NOP               
      91    00B4         0023EE                NOP               
      92    00B6         0023EE                NOP               
      93    00B8         0023EE                NOP               
      94    00BA         0023EE                NOP               
      95    00BC         0023EE                NOP               
      96    00BE         0023EE                NOP               
      97    00C0         0023EE                NOP               
      98    00C2         0023EE                NOP               
      99    00C4         0023EE                NOP               
     100    00C6         0023EE                NOP               
     101    00C8         0023EE                NOP               
     102    00CA         0023EE                NOP               
     103    00CC         0023EE                NOP               
     104    00CE         0023EE                NOP               
     105    00D0         0023EE                NOP               
     106    00D2         0023EE                NOP               
     107    00D4         0023EE                NOP               
     108    00D6         0023EE                NOP               
     109    00D8         0023EE                NOP               
     110    00DA         0023EE                NOP               
     111    00DC         0023EE                NOP               
     112    00DE         0023EE                NOP               
     113    00E0         0023EE                NOP               
     114    00E2         0023EE                NOP               
     115    00E4         0023EE                NOP               
     116    00E6         0023EE                NOP               
     117    00E8         0023EE                NOP               
     118    00EA         0023EE                NOP               
     119    00EC         0023EE                NOP               
     120    00EE         0023EE                NOP               
     121    00F0         0014C0                NOP               
     122    00F2         00156A                NOP               
     123    00F4         00201E                NOP               
     124    00F6         0022AC                NOP               
     125    00F8         0023EE                NOP               
     126    00FA         0023EE                NOP               
     127    00FC         0023EE                NOP               
     128    00FE         0023EE                NOP               
     129    0100         FFFFFF                NOPR              
     130    0102         FFFFFF                NOPR              
     131    0104         0023EE                NOP               
     132    0106         0023D6                NOP               
     133    0108         0023DC                NOP               
     134    010A         0023E2                NOP               
     135    010C         0023E8                NOP               
     136    010E         0023EE                NOP               
     137    0110         0023EE                NOP               
     138    0112         0023EE                NOP               
     139    0114         0023EE                NOP               
     140    0116         0023EE                NOP               
     141    0118         0023EE                NOP               
     142    011A         001D4A                NOP               
     143    011C         0023EE                NOP               
     144    011E         0023EE                NOP               
     145    0120         0023EE                NOP               
     146    0122         0023EE                NOP               
     147    0124         0023EE                NOP               
     148    0126         0023EE                NOP               
     149    0128         0023EE                NOP               
     150    012A         0010FC                NOP               
     151    012C         0023EE                NOP               
     152    012E         0023EE                NOP               
     153    0130         0023EE                NOP               
     154    0132         0023EE                NOP               
     155    0134         0023EE                NOP               
     156    0136         0023EE                NOP               
     157    0138         00100C                NOP               
     158    013A         0023EE                NOP               
     159    013C         0023EE                NOP               
     160    013E         0023EE                NOP               
     161    0140         0023EE                NOP               
     162    0142         0023EE                NOP               
     163    0144         0023EE                NOP               
     164    0146         0023EE                NOP               
     165    0148         0023EE                NOP               
     166    014A         0023EE                NOP               
     167    014C         0023EE                NOP               
     168    014E         0023EE                NOP               
     169    0150         0023EE                NOP               
     170    0152         0023EE                NOP               
     171    0154         0023EE                NOP               
     172    0156         0023EE                NOP               
     173    0158         0023EE                NOP               
     174    015A         0023EE                NOP               
     175    015C         0023EE                NOP               
     176    015E         0023EE                NOP               
     177    0160         0023EE                NOP               
     178    0162         0023EE                NOP               
     179    0164         0023EE                NOP               
     180    0166         0023EE                NOP               
     181    0168         0023EE                NOP               
     182    016A         0023EE                NOP               
     183    016C         0023EE                NOP               
     184    016E         0023EE                NOP               
     185    0170         0023EE                NOP               
     186    0172         0023EE                NOP               
     187    0174         0023EE                NOP               
     188    0176         0023EE                NOP               
     189    0178         0023EE                NOP               
     190    017A         0023EE                NOP               
     191    017C         0023EE                NOP               
     192    017E         0023EE                NOP               
     193    0180         0023EE                NOP               
     194    0182         0023EE                NOP               
     195    0184         0023EE                NOP               
     196    0186         0023EE                NOP               
     197    0188         0023EE                NOP               
     198    018A         0023EE                NOP               
     199    018C         0023EE                NOP               
     200    018E         0023EE                NOP               
     201    0190         0023EE                NOP               
     202    0192         0023EE                NOP               
     203    0194         0023EE                NOP               
     204    0196         0023EE                NOP               
     205    0198         0023EE                NOP               
     206    019A         0023EE                NOP               
     207    019C         0023EE                NOP               
     208    019E         0023EE                NOP               
     209    01A0         0023EE                NOP               
     210    01A2         0023EE                NOP               
     211    01A4         0023EE                NOP               
     212    01A6         0023EE                NOP               
     213    01A8         0023EE                NOP               
     214    01AA         0023EE                NOP               
     215    01AC         0023EE                NOP               
     216    01AE         0023EE                NOP               
     217    01B0         0023EE                NOP               
     218    01B2         0023EE                NOP               
     219    01B4         0023EE                NOP               
     220    01B6         0023EE                NOP               
     221    01B8         0023EE                NOP               
     222    01BA         0023EE                NOP               
     223    01BC         0023EE                NOP               
     224    01BE         0023EE                NOP               
     225    01C0         0023EE                NOP               
     226    01C2         0023EE                NOP               
     227    01C4         0023EE                NOP               
     228    01C6         0023EE                NOP               
     229    01C8         0023EE                NOP               
     230    01CA         0023EE                NOP               
     231    01CC         0023EE                NOP               
     232    01CE         0023EE                NOP               
     233    01D0         0023EE                NOP               
     234    01D2         0023EE                NOP               
     235    01D4         0023EE                NOP               
     236    01D6         0023EE                NOP               
     237    01D8         0023EE                NOP               
     238    01DA         0023EE                NOP               
     239    01DC         0023EE                NOP               
     240    01DE         0023EE                NOP               
     241    01E0         0023EE                NOP               
     242    01E2         0023EE                NOP               
     243    01E4         0023EE                NOP               
     244    01E6         0023EE                NOP               
     245    01E8         0023EE                NOP               
     246    01EA         0023EE                NOP               
     247    01EC         0023EE                NOP               
     248    01EE         0023EE                NOP               
     249    01F0         0014C0                NOP               
     250    01F2         00156A                NOP               
     251    01F4         00201E                NOP               
     252    01F6         0022AC                NOP               
     253    01F8         0023EE                NOP               
     254    01FA         0023EE                NOP               
     255    01FC         0023EE                NOP               
     256    01FE         0023EE                NOP               
     257    0200         20C78F                MOV #0xC78, W15   
     258    0202         20FDC0                MOV #0xFDC, W0    
     259    0204         880100                MOV W0, SPLIM     
     260    0206         000000                NOP               
     261    0208         07000C                RCALL 0x222       
     262    020A         217CA0                MOV #0x17CA, W0   
     263    020C         200001                MOV #0x0, W1      
     264    020E         070011                RCALL 0x232       
     265    0210         200000                MOV #0x0, W0      
     266    0212         E00000                CP0 W0            
     267    0214         320002                BRA Z, 0x21A      
     268    0216         020000                CALL 0x0          
     269    0218         000000                NOP               
     270    021A         021AB8                CALL 0x1AB8       
     271    021C         000000                NOP               
     272    021E         DA4000                BREAK             
     273    0220         FE0000                RESET             
     274    0222         A94044                BCLR CORCON, #2   
     275    0224         200000                MOV #0x0, W0      
     276    0226         E00000                CP0 W0            
     277    0228         320003                BRA Z, 0x230      
     278    022A         200000                MOV #0x0, W0      
     279    022C         8801A0                MOV W0, PSVPAG    
     280    022E         A84044                BSET CORCON, #2   
     281    0230         060000                RETURN            
     282    0232         880191                MOV W1, TBLPAG    
     283    0234         780080                MOV W0, W1        
     284    0236         EB0000                CLR W0            
     285    0238         370015                BRA 0x264         
     286    023A         4080E2                ADD W1, #0x2, W1  
     287    023C         B4A032                ADDC TBLPAG       
     288    023E         BA0191                TBLRDL [W1], W3   
     289    0240         4080E2                ADD W1, #0x2, W1  
     290    0242         B4A032                ADDC TBLPAG       
     291    0244         BA0291                TBLRDL [W1], W5   
     292    0246         4080E2                ADD W1, #0x2, W1  
     293    0248         B4A032                ADDC TBLPAG       
     294    024A         EB0200                CLR W4            
     295    024C         DE2B47                LSR W5, #7, W6    
     296    024E         B207F5                AND #0x7F, W5     
     297    0250         E12C60                CP.B W5, #0       
     298    0252         3A0004                BRA NZ, 0x25C     
     299    0254         EB5900                CLR.B [W2++]      
     300    0256         E90183                DEC W3, W3        
     301    0258         3EFFFD                BRA GTU, 0x254    
     302    025A         370004                BRA 0x264         
     303    025C         E12861                CP W5, #1         
     304    025E         320001                BRA Z, 0x262      
     305    0260         EB8200                SETM W4           
     306    0262         070004                RCALL 0x26C       
     307    0264         BA0111                TBLRDL [W1], W2   
     308    0266         E00002                CP0 W2            
     309    0268         3AFFE8                BRA NZ, 0x23A     
     310    026A         060000                RETURN            
     311    026C         BA5931                TBLRDL.B [W1++], [W2++]
     312    026E         E90183                DEC W3, W3        
     313    0270         32000C                BRA Z, 0x28A      
     314    0272         BA5921                TBLRDL.B [W1--], [W2++]
     315    0274         E90183                DEC W3, W3        
     316    0276         320008                BRA Z, 0x288      
     317    0278         E00004                CP0 W4            
     318    027A         3A0003                BRA NZ, 0x282     
     319    027C         4080E2                ADD W1, #0x2, W1  
     320    027E         B4A032                ADDC TBLPAG       
     321    0280         37FFF5                BRA 0x26C         
     322    0282         BAD911                TBLRDH.B [W1], [W2++]
     323    0284         E90183                DEC W3, W3        
     324    0286         3AFFFA                BRA NZ, 0x27C     
     325    0288         E80081                INC W1, W1        
     326    028A         4080E1                ADD W1, #0x1, W1  
     327    028C         B4A032                ADDC TBLPAG       
     328    028E         060000                RETURN            
     329    0290         BE9F88                MOV.D W8, [W15++] 
     330    0292         BE9F8A                MOV.D W10, [W15++]
     331    0294         780501                MOV W1, W10       
     332    0296         E00001                CP0 W1            
     333    0298         350004                BRA LT, 0x2A2     
     334    029A         3C0008                BRA GT, 0x2AC     
     335    029C         E00000                CP0 W0            
     336    029E         320020                BRA Z, 0x2E0      
     337    02A0         370005                BRA 0x2AC         
     338    02A2         100060                SUBR W0, #0x0, W0 
     339    02A4         1880E0                SUBBR W1, #0x0, W1
     340    02A6         3B0002                BRA NN, 0x2AC     
     341    02A8         2CF001                MOV #0xCF00, W1   
     342    02AA         37001A                BRA 0x2E0         
     343    02AC         BE0400                MOV.D W0, W8      
     344    02AE         B81160                MUL.UU W2, #0, W2 
     345    02B0         20096B                MOV #0x96, W11    
     346    02B2         CF8209                FF1L W9, W4       
     347    02B4         390002                BRA NC, 0x2BA     
     348    02B6         CF8208                FF1L W8, W4       
     349    02B8         B04104                ADD.B #0x10, W4   
     350    02BA         524269                SUB.B W4, #0x9, W4
     351    02BC         32000E                BRA Z, 0x2DA      
     352    02BE         3B0008                BRA NN, 0x2D0     
     353    02C0         718182                IOR W3, W2, W3    
     354    02C2         640161                AND W8, #0x1, W2  
     355    02C4         D10489                LSR W9, W9        
     356    02C6         D38408                RRC W8, W8        
     357    02C8         E8058B                INC W11, W11      
     358    02CA         E84204                INC.B W4, W4      
     359    02CC         3AFFF9                BRA NZ, 0x2C0     
     360    02CE         370005                BRA 0x2DA         
     361    02D0         440408                ADD W8, W8, W8    
     362    02D2         4C8489                ADDC W9, W9, W9   
     363    02D4         E9058B                DEC W11, W11      
     364    02D6         E94204                DEC.B W4, W4      
     365    02D8         3AFFFB                BRA NZ, 0x2D0     
     366    02DA         070077                RCALL 0x3CA       
     367    02DC         A7F00A                BTSC W10, #15     
     368    02DE         A0F001                BSET W1, #15      
     369    02E0         BE054F                MOV.D [--W15], W10
     370    02E2         BE044F                MOV.D [--W15], W8 
     371    02E4         060000                RETURN            
     372    02E6         A2F003                BTG W3, #15       
     373    02E8         BE9F88                MOV.D W8, [W15++] 
     374    02EA         BE9F8A                MOV.D W10, [W15++]
     375    02EC         781F8C                MOV W12, [W15++]  
     376    02EE         070093                RCALL 0x416       
     377    02F0         33009A                BRA N, 0x426      
     378    02F2         E15064                CP W10, #4        
     379    02F4         32004F                BRA Z, 0x394      
     380    02F6         E12064                CP W4, #4         
     381    02F8         320052                BRA Z, 0x39E      
     382    02FA         6C8203                XOR W9, W3, W4    
     383    02FC         3B0007                BRA NN, 0x30C     
     384    02FE         D00509                SL W9, W10        
     385    0300         D00603                SL W3, W12        
     386    0302         540F82                SUB W8, W2, [W15] 
     387    0304         5D060C                SUBB W10, W12, W12
     388    0306         390002                BRA NC, 0x30C     
     389    0308         320002                BRA Z, 0x30E      
     390    030A         780189                MOV W9, W3        
     391    030C         780603                MOV W3, W12       
     392    030E         558285                SUB W11, W5, W5   
     393    0310         3D0004                BRA GE, 0x31A     
     394    0312         FD0300                EXCH W0, W6       
     395    0314         FD0381                EXCH W1, W7       
     396    0316         EA0285                NEG W5, W5        
     397    0318         42858B                ADD W5, W11, W11  
     398    031A         720F84                IOR W4, W4, [W15] 
     399    031C         3B0002                BRA NN, 0x322     
     400    031E         100060                SUBR W0, #0x0, W0 
     401    0320         1880E0                SUBBR W1, #0x0, W1
     402    0322         B81160                MUL.UU W2, #0, W2 
     403    0324         EB0500                CLR W10           
     404    0326         E1287A                CP W5, #26        
     405    0328         39000A                BRA NC, 0x33E     
     406    032A         780006                MOV W6, W0        
     407    032C         DD5DC7                SL W11, #7, W11   
     408    032E         B207F7                AND #0x7F, W7     
     409    0330         758087                IOR W11, W7, W1   
     410    0332         37002D                BRA 0x38E         
     411    0334         718182                IOR W3, W2, W3    
     412    0336         78010A                MOV W10, W2       
     413    0338         600561                AND W0, #0x1, W10 
     414    033A         D18081                ASR W1, W1        
     415    033C         D38000                RRC W0, W0        
     416    033E         E90285                DEC W5, W5        
     417    0340         3BFFF9                BRA NN, 0x334     
     418    0342         400406                ADD W0, W6, W8    
     419    0344         488487                ADDC W1, W7, W9   
     420    0346         3B0002                BRA NN, 0x34C     
     421    0348         140460                SUBR W8, #0x0, W8 
     422    034A         1C84E0                SUBBR W9, #0x0, W9
     423    034C         A38809                BTST.Z W9, #8     
     424    034E         320007                BRA Z, 0x35E      
     425    0350         71818A                IOR W3, W10, W3   
     426    0352         718182                IOR W3, W2, W3    
     427    0354         640161                AND W8, #0x1, W2  
     428    0356         D10489                LSR W9, W9        
     429    0358         D38408                RRC W8, W8        
     430    035A         E8058B                INC W11, W11      
     431    035C         370017                BRA 0x38C         
     432    035E         A37809                BTST.Z W9, #7     
     433    0360         3A0013                BRA NZ, 0x388     
     434    0362         E0000B                CP0 W11           
     435    0364         340013                BRA LE, 0x38C     
     436    0366         E9058B                DEC W11, W11      
     437    0368         440408                ADD W8, W8, W8    
     438    036A         4C8489                ADDC W9, W9, W9   
     439    036C         74440A                IOR.B W8, W10, W8 
     440    036E         A37809                BTST.Z W9, #7     
     441    0370         3A000D                BRA NZ, 0x38C     
     442    0372         E0000B                CP0 W11           
     443    0374         340007                BRA LE, 0x384     
     444    0376         E9058B                DEC W11, W11      
     445    0378         440408                ADD W8, W8, W8    
     446    037A         4C8489                ADDC W9, W9, W9   
     447    037C         3A0001                BRA NZ, 0x380     
     448    037E         20000B                MOV #0x0, W11     
     449    0380         A37809                BTST.Z W9, #7     
     450    0382         32FFF7                BRA Z, 0x372      
     451    0384         EB0100                CLR W2            
     452    0386         370002                BRA 0x38C         
     453    0388         718182                IOR W3, W2, W3    
     454    038A         78010A                MOV W10, W2       
     455    038C         07001E                RCALL 0x3CA       
     456    038E         A7F00C                BTSC W12, #15     
     457    0390         A0F001                BSET W1, #15      
     458    0392         370052                BRA 0x438         
     459    0394         E12064                CP W4, #4         
     460    0396         3A0002                BRA NZ, 0x39C     
     461    0398         6C8F83                XOR W9, W3, [W15] 
     462    039A         330052                BRA N, 0x440      
     463    039C         BE0108                MOV.D W8, W2      
     464    039E         BE0002                MOV.D W2, W0      
     465    03A0         37004B                BRA 0x438         
     466    03A2         200014                MOV #0x1, W4      
     467    03A4         370050                BRA 0x446         
     468    03A6         B82260                MUL.UU W4, #0, W4 
     469    03A8         200206                MOV #0x20, W6     
     470    03AA         D00000                SL W0, W0         
     471    03AC         D28081                RLC W1, W1        
     472    03AE         D28204                RLC W4, W4        
     473    03B0         D28285                RLC W5, W5        
     474    03B2         A00000                BSET W0, #0       
     475    03B4         520202                SUB W4, W2, W4    
     476    03B6         5A8283                SUBB W5, W3, W5   
     477    03B8         310003                BRA C, 0x3C0      
     478    03BA         420202                ADD W4, W2, W4    
     479    03BC         4A8283                ADDC W5, W3, W5   
     480    03BE         A10000                BCLR W0, #0       
     481    03C0         E90306                DEC W6, W6        
     482    03C2         3AFFF3                BRA NZ, 0x3AA     
     483    03C4         060000                RETURN            
     484    03C6         2FFFF4                MOV #0xFFFF, W4   
     485    03C8         37003E                BRA 0x446         
     486    03CA         200081                MOV #0x8, W1      
     487    03CC         558061                SUB W11, #0x1, W0 
     488    03CE         3D000B                BRA GE, 0x3E6     
     489    03D0         20000B                MOV #0x0, W11     
     490    03D2         2FFE61                MOV #0xFFE6, W1   
     491    03D4         E10001                CP.W W0, W1       
     492    03D6         34001D                BRA LE, 0x412     
     493    03D8         718182                IOR W3, W2, W3    
     494    03DA         640161                AND W8, #0x1, W2  
     495    03DC         D10489                LSR W9, W9        
     496    03DE         D38408                RRC W8, W8        
     497    03E0         E80000                INC W0, W0        
     498    03E2         3AFFFA                BRA NZ, 0x3D8     
     499    03E4         200071                MOV #0x7, W1      
     500    03E6         640061                AND W8, #0x1, W0  
     501    03E8         700003                IOR W0, W3, W0    
     502    03EA         600002                AND W0, W2, W0    
     503    03EC         320009                BRA Z, 0x400      
     504    03EE         440461                ADD W8, #0x1, W8  
     505    03F0         4C84E0                ADDC W9, #0x0, W9 
     506    03F2         A58809                BTST.Z W9, W1     
     507    03F4         320005                BRA Z, 0x400      
     508    03F6         E8058B                INC W11, W11      
     509    03F8         E10868                CP W1, #8         
     510    03FA         3A0002                BRA NZ, 0x400     
     511    03FC         D10489                LSR W9, W9        
     512    03FE         D38408                RRC W8, W8        
     513    0400         200FF2                MOV #0xFF, W2     
     514    0402         E15802                CP.W W11, W2      
     515    0404         3D0005                BRA GE, 0x410     
     516    0406         DD5DC7                SL W11, #7, W11   
     517    0408         B207F9                AND #0x7F, W9     
     518    040A         758089                IOR W11, W9, W1   
     519    040C         780008                MOV W8, W0        
     520    040E         060000                RETURN            
     521    0410         27F80B                MOV #0x7F80, W11  
     522    0412         78008B                MOV W11, W1       
     523    0414         050000                RETLW #0x0, W0    
     524    0416         BE0400                MOV.D W0, W8      
     525    0418         070031                RCALL 0x47C       
     526    041A         BE0300                MOV.D W0, W6      
     527    041C         BE0504                MOV.D W4, W10     
     528    041E         BE0002                MOV.D W2, W0      
     529    0420         07002D                RCALL 0x47C       
     530    0422         754F84                IOR.B W10, W4, [W15]
     531    0424         060000                RETURN            
     532    0426         BE0002                MOV.D W2, W0      
     533    0428         E15064                CP W10, #4        
     534    042A         360005                BRA LEU, 0x436    
     535    042C         E12064                CP W4, #4         
     536    042E         360002                BRA LEU, 0x434    
     537    0430         A36809                BTST.Z W9, #6     
     538    0432         3A0001                BRA NZ, 0x436     
     539    0434         BE0008                MOV.D W8, W0      
     540    0436         A06001                BSET W1, #6       
     541    0438         78064F                MOV [--W15], W12  
     542    043A         BE054F                MOV.D [--W15], W10
     543    043C         BE044F                MOV.D [--W15], W8 
     544    043E         060000                RETURN            
     545    0440         2FFFF0                MOV #0xFFFF, W0   
     546    0442         27FFF1                MOV #0x7FFF, W1   
     547    0444         37FFF9                BRA 0x438         
     548    0446         BE9F88                MOV.D W8, [W15++] 
     549    0448         BE9F8A                MOV.D W10, [W15++]
     550    044A         781F84                MOV W4, [W15++]   
     551    044C         07FFE4                RCALL 0x416       
     552    044E         78004F                MOV [--W15], W0   
     553    0450         330011                BRA N, 0x474      
     554    0452         2FFFF0                MOV #0xFFFF, W0   
     555    0454         6C8F83                XOR W9, W3, [W15] 
     556    0456         3B0006                BRA NN, 0x464     
     557    0458         650504                AND W10, W4, W10  
     558    045A         A7000A                BTSC W10, #0      
     559    045C         370008                BRA 0x46E         
     560    045E         A6F009                BTSS W9, #15      
     561    0460         200010                MOV #0x1, W0      
     562    0462         370008                BRA 0x474         
     563    0464         540F82                SUB W8, W2, [W15] 
     564    0466         5C8F83                SUBB W9, W3, [W15]
     565    0468         390003                BRA NC, 0x470     
     566    046A         200010                MOV #0x1, W0      
     567    046C         3E0001                BRA GTU, 0x470    
     568    046E         200000                MOV #0x0, W0      
     569    0470         A7F009                BTSC W9, #15      
     570    0472         EA0000                NEG W0, W0        
     571    0474         BE054F                MOV.D [--W15], W10
     572    0476         BE044F                MOV.D [--W15], W8 
     573    0478         E00000                CP0 W0            
     574    047A         060000                RETURN            
     575    047C         DE0AC7                LSR W1, #7, W5    
     576    047E         B207F1                AND #0x7F, W1     
     577    0480         B20FF5                AND #0xFF, W5     
     578    0482         320008                BRA Z, 0x494      
     579    0484         42CFE1                ADD.B W5, #0x1, [W15]
     580    0486         320002                BRA Z, 0x48C      
     581    0488         A07001                BSET W1, #7       
     582    048A         050024                RETLW #0x2, W4    
     583    048C         700F81                IOR W0, W1, [W15] 
     584    048E         320001                BRA Z, 0x492      
     585    0490         050804                RETLW #0x80, W4   
     586    0492         050044                RETLW #0x4, W4    
     587    0494         700F81                IOR W0, W1, [W15] 
     588    0496         3A0002                BRA NZ, 0x49C     
     589    0498         050014                RETLW #0x1, W4    
     590    049A         E90285                DEC W5, W5        
     591    049C         400000                ADD W0, W0, W0    
     592    049E         48C081                ADDC.B W1, W1, W1 
     593    04A0         3BFFFC                BRA NN, 0x49A     
     594    04A2         A07001                BSET W1, #7       
     595    04A4         050024                RETLW #0x2, W4    
     596    04A6         FEA000                PUSH.S            
     597    04A8         781F84                MOV W4, [W15++]   
     598    04AA         781F85                MOV W5, [W15++]   
     599    04AC         781F88                MOV W8, [W15++]   
     600    04AE         781F8A                MOV W10, [W15++]  
     601    04B0         F80044                PUSH CORCON       
     602    04B2         200F08                MOV #0xF0, W8     
     603    04B4         880228                MOV W8, CORCON    
     604    04B6         A90044                BCLR CORCON, #0   
     605    04B8         900400                MOV [W0+0], W8    
     606    04BA         900510                MOV [W0+2], W10   
     607    04BC         9000A0                MOV [W0+4], W1    
     608    04BE         900130                MOV [W0+6], W2    
     609    04C0         9001C0                MOV [W0+8], W3    
     610    04C2         CA0003                LAC W3, A         
     611    04C4         CA8002                LAC W2, B         
     612    04C6         CB3000                SUB A             
     613    04C8         CD001A                SAC.R A, [W10]    
     614    04CA         C30446                CLR A, [W8]+=2, W4, [W10]+=2, W5
     615    04CC         CA0001                LAC W1, A         
     616    04CE         C00446                MAC W4*W5, A, [W8]+=2, W4, [W10]+=2, W5
     617    04D0         C0041E                MAC W4*W5, A, [W8], W4, [W10]-=2, W5
     618    04D2         C00506                MAC W4*W5, A, [W10]+=2, W5
     619    04D4         CD0001                SAC.R A, W1       
     620    04D6         980021                MOV W1, [W0+4]    
     621    04D8         780D05                MOV W5, [W10]     
     622    04DA         97BAEA                MOV [W10-4], W5   
     623    04DC         782505                MOV W5, [--W10]   
     624    04DE         F90044                POP CORCON        
     625    04E0         78054F                MOV [--W15], W10  
     626    04E2         78044F                MOV [--W15], W8   
     627    04E4         7802CF                MOV [--W15], W5   
     628    04E6         78024F                MOV [--W15], W4   
     629    04E8         FE8000                POP.S             
     630    04EA         060000                RETURN            
     631    04EC         FEA000                PUSH.S            
     632    04EE         781F84                MOV W4, [W15++]   
     633    04F0         781F85                MOV W5, [W15++]   
     634    04F2         781F88                MOV W8, [W15++]   
     635    04F4         781F8A                MOV W10, [W15++]  
     636    04F6         F80044                PUSH CORCON       
     637    04F8         200F08                MOV #0xF0, W8     
     638    04FA         880228                MOV W8, CORCON    
     639    04FC         A90044                BCLR CORCON, #0   
     640    04FE         900400                MOV [W0+0], W8    
     641    0500         900510                MOV [W0+2], W10   
     642    0502         9000A0                MOV [W0+4], W1    
     643    0504         900130                MOV [W0+6], W2    
     644    0506         9001C0                MOV [W0+8], W3    
     645    0508         CA0002                LAC W2, A         
     646    050A         CA8003                LAC W3, B         
     647    050C         CB3000                SUB A             
     648    050E         CD001A                SAC.R A, [W10]    
     649    0510         C30446                CLR A, [W8]+=2, W4, [W10]+=2, W5
     650    0512         CA0001                LAC W1, A         
     651    0514         C00446                MAC W4*W5, A, [W8]+=2, W4, [W10]+=2, W5
     652    0516         C0041E                MAC W4*W5, A, [W8], W4, [W10]-=2, W5
     653    0518         C00506                MAC W4*W5, A, [W10]+=2, W5
     654    051A         CD0001                SAC.R A, W1       
     655    051C         980021                MOV W1, [W0+4]    
     656    051E         780D05                MOV W5, [W10]     
     657    0520         97BAEA                MOV [W10-4], W5   
     658    0522         782505                MOV W5, [--W10]   
     659    0524         F90044                POP CORCON        
     660    0526         78054F                MOV [--W15], W10  
     661    0528         78044F                MOV [--W15], W8   
     662    052A         7802CF                MOV [--W15], W5   
     663    052C         78024F                MOV [--W15], W4   
     664    052E         FE8000                POP.S             
     665    0530         060000                RETURN            
     666    0532         781F80                MOV W0, [W15++]   
     667    0534         B00040                ADD #0x4, W0      
     668    0536         EB0800                CLR [W0]          
     669    0538         78004F                MOV [--W15], W0   
     670    053A         781F80                MOV W0, [W15++]   
     671    053C         900010                MOV [W0+2], W0    
     672    053E         EB1800                CLR [W0++]        
     673    0540         EB1800                CLR [W0++]        
     674    0542         EB0800                CLR [W0]          
     675    0544         78004F                MOV [--W15], W0   
     676    0546         060000                RETURN            
     677    0548         FA0000                LNK #0x0          
     678    054A         208000                MOV #0x800, W0    
     679    054C         886140                MOV W0, 0xC28     
     680    054E         20FF20                MOV #0xFF2, W0    
     681    0550         886150                MOV W0, 0xC2A     
     682    0552         20C280                MOV #0xC28, W0    
     683    0554         07FFEE                RCALL 0x532       
     684    0556         806141                MOV 0xC28, W1     
     685    0558         27EB70                MOV #0x7EB7, W0   
     686    055A         780880                MOV W0, [W1]      
     687    055C         806140                MOV 0xC28, W0     
     688    055E         E88080                INC2 W0, W1       
     689    0560         287AE0                MOV #0x87AE, W0   
     690    0562         780880                MOV W0, [W1]      
     691    0564         806140                MOV 0xC28, W0     
     692    0566         4000E4                ADD W0, #0x4, W1  
     693    0568         EB0000                CLR W0            
     694    056A         780880                MOV W0, [W1]      
     695    056C         EB0000                CLR W0            
     696    056E         886180                MOV W0, 0xC30     
     697    0570         EB0000                CLR W0            
     698    0572         886170                MOV W0, 0xC2E     
     699    0574         FA8000                ULNK              
     700    0576         060000                RETURN            
     701    0578         FA0000                LNK #0x0          
     702    057A         208060                MOV #0x806, W0    
     703    057C         886190                MOV W0, 0xC32     
     704    057E         20FF80                MOV #0xFF8, W0    
     705    0580         8861A0                MOV W0, 0xC34     
     706    0582         20C320                MOV #0xC32, W0    
     707    0584         07FFD6                RCALL 0x532       
     708    0586         806191                MOV 0xC32, W1     
     709    0588         2428F0                MOV #0x428F, W0   
     710    058A         780880                MOV W0, [W1]      
     711    058C         806190                MOV 0xC32, W0     
     712    058E         E88080                INC2 W0, W1       
     713    0590         2C6660                MOV #0xC666, W0   
     714    0592         780880                MOV W0, [W1]      
     715    0594         806190                MOV 0xC32, W0     
     716    0596         4000E4                ADD W0, #0x4, W1  
     717    0598         EB0000                CLR W0            
     718    059A         780880                MOV W0, [W1]      
     719    059C         EB0000                CLR W0            
     720    059E         8861D0                MOV W0, 0xC3A     
     721    05A0         FA8000                ULNK              
     722    05A2         060000                RETURN            
     723    05A4         FA0000                LNK #0x0          
     724    05A6         A9E423                BCLR 0x423, #7    
     725    05A8         A9C423                BCLR 0x423, #6    
     726    05AA         A9A423                BCLR 0x423, #5    
     727    05AC         BFC423                MOV.B 0x423, WREG 
     728    05AE         B340C0                IOR.B #0xC, W0    
     729    05B0         B7E423                MOV.B WREG, 0x423 
     730    05B2         BFC420                MOV.B PWMCON1, WREG
     731    05B4         B243F0                AND.B #0x3F, W0   
     732    05B6         B3C801                MOV.B #0x80, W1   
     733    05B8         704001                IOR.B W0, W1, W0  
     734    05BA         B7E420                MOV.B WREG, PWMCON1
     735    05BC         A92420                BCLR PWMCON1, #1  
     736    05BE         A80420                BSET PWMCON1, #0  
     737    05C0         A82421                BSET 0x421, #1    
     738    05C2         BFC424                MOV.B FCLCON1, WREG
     739    05C4         B34030                IOR.B #0x3, W0    
     740    05C6         B7E424                MOV.B WREG, FCLCON1
     741    05C8         BFC435                MOV.B 0x435, WREG 
     742    05CA         60406F                AND.B W0, #0xF, W0
     743    05CC         B7E435                MOV.B WREG, 0x435 
     744    05CE         204341                MOV #0x434, W1    
     745    05D0         784091                MOV.B [W1], W1    
     746    05D2         B3CC00                MOV.B #0xC0, W0   
     747    05D4         60C000                AND.B W1, W0, W0  
     748    05D6         B7E434                MOV.B WREG, TRGCON1
     749    05D8         219D50                MOV #0x19D5, W0   
     750    05DA         882140                MOV W0, PHASE1    
     751    05DC         EB0000                CLR W0            
     752    05DE         882130                MOV W0, PDC1      
     753    05E0         802130                MOV PDC1, W0      
     754    05E2         D10000                LSR W0, W0        
     755    05E4         882190                MOV W0, TRIG1     
     756    05E6         FA8000                ULNK              
     757    05E8         060000                RETURN            
     758    05EA         FA0000                LNK #0x0          
     759    05EC         07FFC5                RCALL 0x578       
     760    05EE         07FFAC                RCALL 0x548       
     761    05F0         07FFD9                RCALL 0x5A4       
     762    05F2         A94C26                BCLR 0xC26, #2    
     763    05F4         A92C26                BCLR 0xC26, #1    
     764    05F6         A96C26                BCLR 0xC26, #3    
     765    05F8         26E200                MOV #0x6E20, W0   
     766    05FA         886070                MOV W0, 0xC0E     
     767    05FC         A9AC26                BCLR 0xC26, #5    
     768    05FE         A9EC76                BCLR 0xC76, #7    
     769    0600         FA8000                ULNK              
     770    0602         060000                RETURN            
     771    0604         FA0000                LNK #0x0          
     772    0606         805B70                MOV 0xB6E, W0     
     773    0608         500FEA                SUB W0, #0xA, [W15]
     774    060A         360005                BRA LEU, 0x616    
     775    060C         805B70                MOV 0xB6E, W0     
     776    060E         DD00C5                SL W0, #5, W1     
     777    0610         2FEC00                MOV #0xFEC0, W0   
     778    0612         408000                ADD W1, W0, W0    
     779    0614         886090                MOV W0, 0xC12     
     780    0616         806090                MOV 0xC12, W0     
     781    0618         886180                MOV W0, 0xC30     
     782    061A         EB0000                CLR W0            
     783    061C         885B90                MOV W0, 0xB72     
     784    061E         EB0000                CLR W0            
     785    0620         8861D0                MOV W0, 0xC3A     
     786    0622         20C280                MOV #0xC28, W0    
     787    0624         07FF86                RCALL 0x532       
     788    0626         20C320                MOV #0xC32, W0    
     789    0628         07FF84                RCALL 0x532       
     790    062A         A8E423                BSET 0x423, #7    
     791    062C         A84C26                BSET 0xC26, #2    
     792    062E         A84C76                BSET 0xC76, #2    
     793    0630         A88C26                BSET 0xC26, #4    
     794    0632         EB0000                CLR W0            
     795    0634         8860E0                MOV W0, 0xC1C     
     796    0636         805E41                MOV 0xBC8, W1     
     797    0638         200800                MOV #0x80, W0     
     798    063A         608000                AND W1, W0, W0    
     799    063C         E00000                CP0 W0            
     800    063E         320002                BRA Z, 0x644      
     801    0640         A9EBC8                BCLR 0xBC8, #7    
     802    0642         A88BC8                BSET 0xBC8, #4    
     803    0644         A8EC76                BSET 0xC76, #7    
     804    0646         FA8000                ULNK              
     805    0648         060000                RETURN            
     806    064A         FA0000                LNK #0x0          
     807    064C         A9EC76                BCLR 0xC76, #7    
     808    064E         EB0000                CLR W0            
     809    0650         885B90                MOV W0, 0xB72     
     810    0652         EB0000                CLR W0            
     811    0654         886090                MOV W0, 0xC12     
     812    0656         EB0000                CLR W0            
     813    0658         882130                MOV W0, PDC1      
     814    065A         A9E423                BCLR 0x423, #7    
     815    065C         EB0000                CLR W0            
     816    065E         8860A0                MOV W0, 0xC14     
     817    0660         A94C26                BCLR 0xC26, #2    
     818    0662         A94C76                BCLR 0xC76, #2    
     819    0664         A98C26                BCLR 0xC26, #4    
     820    0666         805E41                MOV 0xBC8, W1     
     821    0668         200800                MOV #0x80, W0     
     822    066A         608000                AND W1, W0, W0    
     823    066C         E00000                CP0 W0            
     824    066E         3A0002                BRA NZ, 0x674     
     825    0670         A8EBC8                BSET 0xBC8, #7    
     826    0672         A88BC8                BSET 0xBC8, #4    
     827    0674         FA8000                ULNK              
     828    0676         060000                RETURN            
     829    0678         FA0004                LNK #0x4          
     830    067A         781F88                MOV W8, [W15++]   
     831    067C         805A81                MOV 0xB50, W1     
     832    067E         2026B0                MOV #0x26B, W0    
     833    0680         508F80                SUB W1, W0, [W15] 
     834    0682         3E004A                BRA GTU, 0x718    
     835    0684         805AD1                MOV 0xB5A, W1     
     836    0686         2002D0                MOV #0x2D, W0     
     837    0688         508F80                SUB W1, W0, [W15] 
     838    068A         3E0006                BRA GTU, 0x698    
     839    068C         806330                MOV 0xC66, W0     
     840    068E         500FE1                SUB W0, #0x1, [W15]
     841    0690         320003                BRA Z, 0x698      
     842    0692         805BC0                MOV 0xB78, W0     
     843    0694         500FE1                SUB W0, #0x1, [W15]
     844    0696         3A0020                BRA NZ, 0x6D8     
     845    0698         805F81                MOV 0xBF0, W1     
     846    069A         208C00                MOV #0x8C0, W0    
     847    069C         508F80                SUB W1, W0, [W15] 
     848    069E         36000C                BRA LEU, 0x6B8    
     849    06A0         806191                MOV 0xC32, W1     
     850    06A2         2428F0                MOV #0x428F, W0   
     851    06A4         780880                MOV W0, [W1]      
     852    06A6         806190                MOV 0xC32, W0     
     853    06A8         E88080                INC2 W0, W1       
     854    06AA         2C6660                MOV #0xC666, W0   
     855    06AC         780880                MOV W0, [W1]      
     856    06AE         806190                MOV 0xC32, W0     
     857    06B0         4000E4                ADD W0, #0x4, W1  
     858    06B2         EB0000                CLR W0            
     859    06B4         780880                MOV W0, [W1]      
     860    06B6         37001E                BRA 0x6F4         
     861    06B8         805F81                MOV 0xBF0, W1     
     862    06BA         2083F0                MOV #0x83F, W0    
     863    06BC         508F80                SUB W1, W0, [W15] 
     864    06BE         3E001A                BRA GTU, 0x6F4    
     865    06C0         806191                MOV 0xC32, W1     
     866    06C2         243D70                MOV #0x43D7, W0   
     867    06C4         780880                MOV W0, [W1]      
     868    06C6         806190                MOV 0xC32, W0     
     869    06C8         E88080                INC2 W0, W1       
     870    06CA         2C8F60                MOV #0xC8F6, W0   
     871    06CC         780880                MOV W0, [W1]      
     872    06CE         806190                MOV 0xC32, W0     
     873    06D0         4000E4                ADD W0, #0x4, W1  
     874    06D2         EB0000                CLR W0            
     875    06D4         780880                MOV W0, [W1]      
     876    06D6         37000E                BRA 0x6F4         
     877    06D8         805AD0                MOV 0xB5A, W0     
     878    06DA         500FFD                SUB W0, #0x1D, [W15]
     879    06DC         3E000B                BRA GTU, 0x6F4    
     880    06DE         806191                MOV 0xC32, W1     
     881    06E0         253330                MOV #0x5333, W0   
     882    06E2         780880                MOV W0, [W1]      
     883    06E4         806190                MOV 0xC32, W0     
     884    06E6         E88080                INC2 W0, W1       
     885    06E8         2C0000                MOV #0xC000, W0   
     886    06EA         780880                MOV W0, [W1]      
     887    06EC         806190                MOV 0xC32, W0     
     888    06EE         4000E4                ADD W0, #0x4, W1  
     889    06F0         EB0000                CLR W0            
     890    06F2         780880                MOV W0, [W1]      
     891    06F4         805F81                MOV 0xBF0, W1     
     892    06F6         204400                MOV #0x440, W0    
     893    06F8         508F80                SUB W1, W0, [W15] 
     894    06FA         360004                BRA LEU, 0x704    
     895    06FC         8059D0                MOV 0xB3A, W0     
     896    06FE         A00000                BSET W0, #0       
     897    0700         8859D0                MOV W0, 0xB3A     
     898    0702         370008                BRA 0x714         
     899    0704         805F81                MOV 0xBF0, W1     
     900    0706         203BF0                MOV #0x3BF, W0    
     901    0708         508F80                SUB W1, W0, [W15] 
     902    070A         3E0004                BRA GTU, 0x714    
     903    070C         8059D0                MOV 0xB3A, W0     
     904    070E         2FFFE1                MOV #0xFFFE, W1   
     905    0710         600001                AND W0, W1, W0    
     906    0712         8859D0                MOV W0, 0xB3A     
     907    0714         A882CD                BSET 0x2CD, #4    
     908    0716         370092                BRA 0x83C         
     909    0718         805A81                MOV 0xB50, W1     
     910    071A         202800                MOV #0x280, W0    
     911    071C         508F80                SUB W1, W0, [W15] 
     912    071E         36008E                BRA LEU, 0x83C    
     913    0720         805AD1                MOV 0xB5A, W1     
     914    0722         200370                MOV #0x37, W0     
     915    0724         508F80                SUB W1, W0, [W15] 
     916    0726         3E0012                BRA GTU, 0x74C    
     917    0728         805A81                MOV 0xB50, W1     
     918    072A         203110                MOV #0x311, W0    
     919    072C         508F80                SUB W1, W0, [W15] 
     920    072E         3E000E                BRA GTU, 0x74C    
     921    0730         806330                MOV 0xC66, W0     
     922    0732         500FE1                SUB W0, #0x1, [W15]
     923    0734         32000B                BRA Z, 0x74C      
     924    0736         805BC0                MOV 0xB78, W0     
     925    0738         500FE1                SUB W0, #0x1, [W15]
     926    073A         320008                BRA Z, 0x74C      
     927    073C         805F81                MOV 0xBF0, W1     
     928    073E         203000                MOV #0x300, W0    
     929    0740         508F80                SUB W1, W0, [W15] 
     930    0742         3E0004                BRA GTU, 0x74C    
     931    0744         805F40                MOV 0xBE8, W0     
     932    0746         600070                AND W0, #0x10, W0 
     933    0748         E00000                CP0 W0            
     934    074A         320026                BRA Z, 0x798      
     935    074C         805F82                MOV 0xBF0, W2     
     936    074E         805AF0                MOV 0xB5E, W0     
     937    0750         DD00C6                SL W0, #6, W1     
     938    0752         2FFC00                MOV #0xFFC0, W0   
     939    0754         408000                ADD W1, W0, W0    
     940    0756         510F80                SUB W2, W0, [W15] 
     941    0758         36000C                BRA LEU, 0x772    
     942    075A         806191                MOV 0xC32, W1     
     943    075C         261470                MOV #0x6147, W0   
     944    075E         780880                MOV W0, [W1]      
     945    0760         806190                MOV 0xC32, W0     
     946    0762         E88080                INC2 W0, W1       
     947    0764         2AE140                MOV #0xAE14, W0   
     948    0766         780880                MOV W0, [W1]      
     949    0768         806190                MOV 0xC32, W0     
     950    076A         4000E4                ADD W0, #0x4, W1  
     951    076C         EB0000                CLR W0            
     952    076E         780880                MOV W0, [W1]      
     953    0770         37003E                BRA 0x7EE         
     954    0772         805F82                MOV 0xBF0, W2     
     955    0774         805AF0                MOV 0xB5E, W0     
     956    0776         DD00C6                SL W0, #6, W1     
     957    0778         2FF000                MOV #0xFF00, W0   
     958    077A         408000                ADD W1, W0, W0    
     959    077C         510F80                SUB W2, W0, [W15] 
     960    077E         310037                BRA C, 0x7EE      
     961    0780         806191                MOV 0xC32, W1     
     962    0782         25D700                MOV #0x5D70, W0   
     963    0784         780880                MOV W0, [W1]      
     964    0786         806190                MOV 0xC32, W0     
     965    0788         E88080                INC2 W0, W1       
     966    078A         2B3330                MOV #0xB333, W0   
     967    078C         780880                MOV W0, [W1]      
     968    078E         806190                MOV 0xC32, W0     
     969    0790         4000E4                ADD W0, #0x4, W1  
     970    0792         EB0000                CLR W0            
     971    0794         780880                MOV W0, [W1]      
     972    0796         37002B                BRA 0x7EE         
     973    0798         805AD1                MOV 0xB5A, W1     
     974    079A         200220                MOV #0x22, W0     
     975    079C         508F80                SUB W1, W0, [W15] 
     976    079E         3E0027                BRA GTU, 0x7EE    
     977    07A0         805A81                MOV 0xB50, W1     
     978    07A2         203020                MOV #0x302, W0    
     979    07A4         508F80                SUB W1, W0, [W15] 
     980    07A6         3E0023                BRA GTU, 0x7EE    
     981    07A8         805F81                MOV 0xBF0, W1     
     982    07AA         202BF0                MOV #0x2BF, W0    
     983    07AC         508F80                SUB W1, W0, [W15] 
     984    07AE         3E001F                BRA GTU, 0x7EE    
     985    07B0         805F81                MOV 0xBF0, W1     
     986    07B2         201800                MOV #0x180, W0    
     987    07B4         508F80                SUB W1, W0, [W15] 
     988    07B6         36000C                BRA LEU, 0x7D0    
     989    07B8         806191                MOV 0xC32, W1     
     990    07BA         25FFF0                MOV #0x5FFF, W0   
     991    07BC         780880                MOV W0, [W1]      
     992    07BE         806190                MOV 0xC32, W0     
     993    07C0         E88080                INC2 W0, W1       
     994    07C2         2C0000                MOV #0xC000, W0   
     995    07C4         780880                MOV W0, [W1]      
     996    07C6         806190                MOV 0xC32, W0     
     997    07C8         4000E4                ADD W0, #0x4, W1  
     998    07CA         EB0000                CLR W0            
     999    07CC         780880                MOV W0, [W1]      
    1000    07CE         37000F                BRA 0x7EE         
    1001    07D0         805F81                MOV 0xBF0, W1     
    1002    07D2         2013F0                MOV #0x13F, W0    
    1003    07D4         508F80                SUB W1, W0, [W15] 
    1004    07D6         3E000B                BRA GTU, 0x7EE    
    1005    07D8         806191                MOV 0xC32, W1     
    1006    07DA         25D700                MOV #0x5D70, W0   
    1007    07DC         780880                MOV W0, [W1]      
    1008    07DE         806190                MOV 0xC32, W0     
    1009    07E0         E88080                INC2 W0, W1       
    1010    07E2         2B3330                MOV #0xB333, W0   
    1011    07E4         780880                MOV W0, [W1]      
    1012    07E6         806190                MOV 0xC32, W0     
    1013    07E8         4000E4                ADD W0, #0x4, W1  
    1014    07EA         EB0000                CLR W0            
    1015    07EC         780880                MOV W0, [W1]      
    1016    07EE         805F80                MOV 0xBF0, W0     
    1017    07F0         805AF1                MOV 0xB5E, W1     
    1018    07F2         DD08C6                SL W1, #6, W1     
    1019    07F4         500F81                SUB W0, W1, [W15] 
    1020    07F6         3E0004                BRA GTU, 0x800    
    1021    07F8         805A81                MOV 0xB50, W1     
    1022    07FA         203110                MOV #0x311, W0    
    1023    07FC         508F80                SUB W1, W0, [W15] 
    1024    07FE         360004                BRA LEU, 0x808    
    1025    0800         8059D0                MOV 0xB3A, W0     
    1026    0802         A00000                BSET W0, #0       
    1027    0804         8859D0                MOV W0, 0xB3A     
    1028    0806         37000F                BRA 0x826         
    1029    0808         805F82                MOV 0xBF0, W2     
    1030    080A         805AF0                MOV 0xB5E, W0     
    1031    080C         DD00C6                SL W0, #6, W1     
    1032    080E         2FF400                MOV #0xFF40, W0   
    1033    0810         408000                ADD W1, W0, W0    
    1034    0812         510F80                SUB W2, W0, [W15] 
    1035    0814         310008                BRA C, 0x826      
    1036    0816         805A81                MOV 0xB50, W1     
    1037    0818         203020                MOV #0x302, W0    
    1038    081A         508F80                SUB W1, W0, [W15] 
    1039    081C         3E0004                BRA GTU, 0x826    
    1040    081E         8059D0                MOV 0xB3A, W0     
    1041    0820         2FFFE1                MOV #0xFFFE, W1   
    1042    0822         600001                AND W0, W1, W0    
    1043    0824         8859D0                MOV W0, 0xB3A     
    1044    0826         805F81                MOV 0xBF0, W1     
    1045    0828         202400                MOV #0x240, W0    
    1046    082A         508F80                SUB W1, W0, [W15] 
    1047    082C         360002                BRA LEU, 0x832    
    1048    082E         A882CD                BSET 0x2CD, #4    
    1049    0830         370005                BRA 0x83C         
    1050    0832         805F81                MOV 0xBF0, W1     
    1051    0834         201FF0                MOV #0x1FF, W0    
    1052    0836         508F80                SUB W1, W0, [W15] 
    1053    0838         3E0001                BRA GTU, 0x83C    
    1054    083A         A982CD                BCLR 0x2CD, #4    
    1055    083C         805A81                MOV 0xB50, W1     
    1056    083E         2012B0                MOV #0x12B, W0    
    1057    0840         508F80                SUB W1, W0, [W15] 
    1058    0842         3E0003                BRA GTU, 0x84A    
    1059    0844         200110                MOV #0x11, W0     
    1060    0846         8859E0                MOV W0, 0xB3C     
    1061    0848         370006                BRA 0x856         
    1062    084A         805A81                MOV 0xB50, W1     
    1063    084C         201400                MOV #0x140, W0    
    1064    084E         508F80                SUB W1, W0, [W15] 
    1065    0850         360002                BRA LEU, 0x856    
    1066    0852         200460                MOV #0x46, W0     
    1067    0854         8859E0                MOV W0, 0xB3C     
    1068    0856         805F80                MOV 0xBF0, W0     
    1069    0858         8059E1                MOV 0xB3C, W1     
    1070    085A         DD08C6                SL W1, #6, W1     
    1071    085C         500F81                SUB W0, W1, [W15] 
    1072    085E         360004                BRA LEU, 0x868    
    1073    0860         8059D0                MOV 0xB3A, W0     
    1074    0862         A01000                BSET W0, #1       
    1075    0864         8859D0                MOV W0, 0xB3A     
    1076    0866         37000B                BRA 0x87E         
    1077    0868         805F82                MOV 0xBF0, W2     
    1078    086A         8059E0                MOV 0xB3C, W0     
    1079    086C         DD00C6                SL W0, #6, W1     
    1080    086E         2FF000                MOV #0xFF00, W0   
    1081    0870         408000                ADD W1, W0, W0    
    1082    0872         510F80                SUB W2, W0, [W15] 
    1083    0874         310004                BRA C, 0x87E      
    1084    0876         8059D0                MOV 0xB3A, W0     
    1085    0878         2FFFD1                MOV #0xFFFD, W1   
    1086    087A         600001                AND W0, W1, W0    
    1087    087C         8859D0                MOV W0, 0xB3A     
    1088    087E         805F81                MOV 0xBF0, W1     
    1089    0880         203400                MOV #0x340, W0    
    1090    0882         508F80                SUB W1, W0, [W15] 
    1091    0884         360004                BRA LEU, 0x88E    
    1092    0886         8059D0                MOV 0xB3A, W0     
    1093    0888         A03000                BSET W0, #3       
    1094    088A         8859D0                MOV W0, 0xB3A     
    1095    088C         370008                BRA 0x89E         
    1096    088E         805F81                MOV 0xBF0, W1     
    1097    0890         202BF0                MOV #0x2BF, W0    
    1098    0892         508F80                SUB W1, W0, [W15] 
    1099    0894         3E0004                BRA GTU, 0x89E    
    1100    0896         8059D0                MOV 0xB3A, W0     
    1101    0898         2FFF71                MOV #0xFFF7, W1   
    1102    089A         600001                AND W0, W1, W0    
    1103    089C         8859D0                MOV W0, 0xB3A     
    1104    089E         805A81                MOV 0xB50, W1     
    1105    08A0         2026B0                MOV #0x26B, W0    
    1106    08A2         508F80                SUB W1, W0, [W15] 
    1107    08A4         3E0004                BRA GTU, 0x8AE    
    1108    08A6         8059D0                MOV 0xB3A, W0     
    1109    08A8         2FFEF1                MOV #0xFFEF, W1   
    1110    08AA         600001                AND W0, W1, W0    
    1111    08AC         8859D0                MOV W0, 0xB3A     
    1112    08AE         805A81                MOV 0xB50, W1     
    1113    08B0         2012B0                MOV #0x12B, W0    
    1114    08B2         508F80                SUB W1, W0, [W15] 
    1115    08B4         360004                BRA LEU, 0x8BE    
    1116    08B6         805A81                MOV 0xB50, W1     
    1117    08B8         2032A0                MOV #0x32A, W0    
    1118    08BA         508F80                SUB W1, W0, [W15] 
    1119    08BC         360015                BRA LEU, 0x8E8    
    1120    08BE         8059D0                MOV 0xB3A, W0     
    1121    08C0         A02000                BSET W0, #2       
    1122    08C2         8859D0                MOV W0, 0xB3A     
    1123    08C4         805F81                MOV 0xBF0, W1     
    1124    08C6         20D000                MOV #0xD00, W0    
    1125    08C8         508F80                SUB W1, W0, [W15] 
    1126    08CA         360005                BRA LEU, 0x8D6    
    1127    08CC         8059D0                MOV 0xB3A, W0     
    1128    08CE         201001                MOV #0x100, W1    
    1129    08D0         700001                IOR W0, W1, W0    
    1130    08D2         8859D0                MOV W0, 0xB3A     
    1131    08D4         370015                BRA 0x900         
    1132    08D6         805F81                MOV 0xBF0, W1     
    1133    08D8         20C7F0                MOV #0xC7F, W0    
    1134    08DA         508F80                SUB W1, W0, [W15] 
    1135    08DC         3E0011                BRA GTU, 0x900    
    1136    08DE         8059D0                MOV 0xB3A, W0     
    1137    08E0         2FEFF1                MOV #0xFEFF, W1   
    1138    08E2         600001                AND W0, W1, W0    
    1139    08E4         8859D0                MOV W0, 0xB3A     
    1140    08E6         37000C                BRA 0x900         
    1141    08E8         805A81                MOV 0xB50, W1     
    1142    08EA         201400                MOV #0x140, W0    
    1143    08EC         508F80                SUB W1, W0, [W15] 
    1144    08EE         360008                BRA LEU, 0x900    
    1145    08F0         805A81                MOV 0xB50, W1     
    1146    08F2         203150                MOV #0x315, W0    
    1147    08F4         508F80                SUB W1, W0, [W15] 
    1148    08F6         3E0004                BRA GTU, 0x900    
    1149    08F8         8059D0                MOV 0xB3A, W0     
    1150    08FA         2FFFB1                MOV #0xFFFB, W1   
    1151    08FC         600001                AND W0, W1, W0    
    1152    08FE         8859D0                MOV W0, 0xB3A     
    1153    0900         806130                MOV 0xC26, W0     
    1154    0902         200201                MOV #0x20, W1     
    1155    0904         600001                AND W0, W1, W0    
    1156    0906         E00000                CP0 W0            
    1157    0908         320008                BRA Z, 0x91A      
    1158    090A         805F81                MOV 0xBF0, W1     
    1159    090C         202400                MOV #0x240, W0    
    1160    090E         508F80                SUB W1, W0, [W15] 
    1161    0910         360004                BRA LEU, 0x91A    
    1162    0912         8059D0                MOV 0xB3A, W0     
    1163    0914         A04000                BSET W0, #4       
    1164    0916         8859D0                MOV W0, 0xB3A     
    1165    0918         37000D                BRA 0x934         
    1166    091A         806130                MOV 0xC26, W0     
    1167    091C         200201                MOV #0x20, W1     
    1168    091E         600001                AND W0, W1, W0    
    1169    0920         E00000                CP0 W0            
    1170    0922         320004                BRA Z, 0x92C      
    1171    0924         805F81                MOV 0xBF0, W1     
    1172    0926         201FF0                MOV #0x1FF, W0    
    1173    0928         508F80                SUB W1, W0, [W15] 
    1174    092A         3E0004                BRA GTU, 0x934    
    1175    092C         8059D0                MOV 0xB3A, W0     
    1176    092E         2FFEF1                MOV #0xFFEF, W1   
    1177    0930         600001                AND W0, W1, W0    
    1178    0932         8859D0                MOV W0, 0xB3A     
    1179    0934         805F81                MOV 0xBF0, W1     
    1180    0936         201400                MOV #0x140, W0    
    1181    0938         508F80                SUB W1, W0, [W15] 
    1182    093A         360005                BRA LEU, 0x946    
    1183    093C         8059D0                MOV 0xB3A, W0     
    1184    093E         200201                MOV #0x20, W1     
    1185    0940         700001                IOR W0, W1, W0    
    1186    0942         8859D0                MOV W0, 0xB3A     
    1187    0944         370016                BRA 0x972         
    1188    0946         805F88                MOV 0xBF0, W8     
    1189    0948         B94061                MUL.SU W8, #1, W0 
    1190    094A         07FCA2                RCALL 0x290       
    1191    094C         BE8F00                MOV.D W0, [W14]   
    1192    094E         E00008                CP0 W8            
    1193    0950         3D0005                BRA GE, 0x95C     
    1194    0952         200002                MOV #0x0, W2      
    1195    0954         247803                MOV #0x4780, W3   
    1196    0956         BE001E                MOV.D [W14], W0   
    1197    0958         07FCC7                RCALL 0x2E8       
    1198    095A         BE8F00                MOV.D W0, [W14]   
    1199    095C         2CCCD2                MOV #0xCCCD, W2   
    1200    095E         2434C3                MOV #0x434C, W3   
    1201    0960         BE001E                MOV.D [W14], W0   
    1202    0962         07FD1F                RCALL 0x3A2       
    1203    0964         E00000                CP0 W0            
    1204    0966         350001                BRA LT, 0x96A     
    1205    0968         370004                BRA 0x972         
    1206    096A         8059D0                MOV 0xB3A, W0     
    1207    096C         2FFDF1                MOV #0xFFDF, W1   
    1208    096E         600001                AND W0, W1, W0    
    1209    0970         8859D0                MOV W0, 0xB3A     
    1210    0972         805F81                MOV 0xBF0, W1     
    1211    0974         2013F0                MOV #0x13F, W0    
    1212    0976         508F80                SUB W1, W0, [W15] 
    1213    0978         3E0009                BRA GTU, 0x98C    
    1214    097A         805A81                MOV 0xB50, W1     
    1215    097C         203110                MOV #0x311, W0    
    1216    097E         508F80                SUB W1, W0, [W15] 
    1217    0980         360005                BRA LEU, 0x98C    
    1218    0982         8059D0                MOV 0xB3A, W0     
    1219    0984         200401                MOV #0x40, W1     
    1220    0986         700001                IOR W0, W1, W0    
    1221    0988         8859D0                MOV W0, 0xB3A     
    1222    098A         37000C                BRA 0x9A4         
    1223    098C         805F81                MOV 0xBF0, W1     
    1224    098E         200FF0                MOV #0xFF, W0     
    1225    0990         508F80                SUB W1, W0, [W15] 
    1226    0992         360004                BRA LEU, 0x99C    
    1227    0994         805A81                MOV 0xB50, W1     
    1228    0996         203020                MOV #0x302, W0    
    1229    0998         508F80                SUB W1, W0, [W15] 
    1230    099A         3E0004                BRA GTU, 0x9A4    
    1231    099C         8059D0                MOV 0xB3A, W0     
    1232    099E         2FFBF1                MOV #0xFFBF, W1   
    1233    09A0         600001                AND W0, W1, W0    
    1234    09A2         8859D0                MOV W0, 0xB3A     
    1235    09A4         78044F                MOV [--W15], W8   
    1236    09A6         FA8000                ULNK              
    1237    09A8         060000                RETURN            
    1238    09AA         FA0002                LNK #0x2          
    1239    09AC         805E40                MOV 0xBC8, W0     
    1240    09AE         201001                MOV #0x100, W1    
    1241    09B0         600001                AND W0, W1, W0    
    1242    09B2         E00000                CP0 W0            
    1243    09B4         320005                BRA Z, 0x9C0      
    1244    09B6         806350                MOV 0xC6A, W0     
    1245    09B8         500FE7                SUB W0, #0x7, [W15]
    1246    09BA         36000A                BRA LEU, 0x9D0    
    1247    09BC         A90BC9                BCLR 0xBC9, #0    
    1248    09BE         370008                BRA 0x9D0         
    1249    09C0         805971                MOV 0xB2E, W1     
    1250    09C2         200630                MOV #0x63, W0     
    1251    09C4         508F80                SUB W1, W0, [W15] 
    1252    09C6         360004                BRA LEU, 0x9D0    
    1253    09C8         806350                MOV 0xC6A, W0     
    1254    09CA         E00000                CP0 W0            
    1255    09CC         3A0001                BRA NZ, 0x9D0     
    1256    09CE         A80BC9                BSET 0xBC9, #0    
    1257    09D0         805E40                MOV 0xBC8, W0     
    1258    09D2         600062                AND W0, #0x2, W0  
    1259    09D4         E00000                CP0 W0            
    1260    09D6         32000F                BRA Z, 0x9F6      
    1261    09D8         805D62                MOV 0xBAC, W2     
    1262    09DA         805D73                MOV 0xBAE, W3     
    1263    09DC         217280                MOV #0x1728, W0   
    1264    09DE         200001                MOV #0x0, W1      
    1265    09E0         510F80                SUB W2, W0, [W15] 
    1266    09E2         598F81                SUBB W3, W1, [W15]
    1267    09E4         3E0013                BRA GTU, 0xA0C    
    1268    09E6         A92BC8                BCLR 0xBC8, #1    
    1269    09E8         A9CBC8                BCLR 0xBC8, #6    
    1270    09EA         A88BC8                BSET 0xBC8, #4    
    1271    09EC         EB0000                CLR W0            
    1272    09EE         885A20                MOV W0, 0xB44     
    1273    09F0         A90C26                BCLR 0xC26, #0    
    1274    09F2         A92C76                BCLR 0xC76, #1    
    1275    09F4         37000B                BRA 0xA0C         
    1276    09F6         805D62                MOV 0xBAC, W2     
    1277    09F8         805D73                MOV 0xBAE, W3     
    1278    09FA         21C390                MOV #0x1C39, W0   
    1279    09FC         200001                MOV #0x0, W1      
    1280    09FE         510F80                SUB W2, W0, [W15] 
    1281    0A00         598F81                SUBB W3, W1, [W15]
    1282    0A02         360004                BRA LEU, 0xA0C    
    1283    0A04         A82BC8                BSET 0xBC8, #1    
    1284    0A06         A88BC8                BSET 0xBC8, #4    
    1285    0A08         EB0000                CLR W0            
    1286    0A0A         886350                MOV W0, 0xC6A     
    1287    0A0C         805E40                MOV 0xBC8, W0     
    1288    0A0E         201001                MOV #0x100, W1    
    1289    0A10         600001                AND W0, W1, W0    
    1290    0A12         E00000                CP0 W0            
    1291    0A14         32000C                BRA Z, 0xA2E      
    1292    0A16         805E40                MOV 0xBC8, W0     
    1293    0A18         600062                AND W0, #0x2, W0  
    1294    0A1A         E00000                CP0 W0            
    1295    0A1C         320008                BRA Z, 0xA2E      
    1296    0A1E         806130                MOV 0xC26, W0     
    1297    0A20         204001                MOV #0x400, W1    
    1298    0A22         600001                AND W0, W1, W0    
    1299    0A24         E00000                CP0 W0            
    1300    0A26         3A0003                BRA NZ, 0xA2E     
    1301    0A28         200010                MOV #0x1, W0      
    1302    0A2A         780F00                MOV W0, [W14]     
    1303    0A2C         370002                BRA 0xA32         
    1304    0A2E         EB0000                CLR W0            
    1305    0A30         780F00                MOV W0, [W14]     
    1306    0A32         78401E                MOV.B [W14], W0   
    1307    0A34         604061                AND.B W0, #0x1, W0
    1308    0A36         604061                AND.B W0, #0x1, W0
    1309    0A38         DD0143                SL W0, #3, W2     
    1310    0A3A         202CD1                MOV #0x2CD, W1    
    1311    0A3C         784091                MOV.B [W1], W1    
    1312    0A3E         B3CF70                MOV.B #0xF7, W0   
    1313    0A40         60C000                AND.B W1, W0, W0  
    1314    0A42         704002                IOR.B W0, W2, W0  
    1315    0A44         B7E2CD                MOV.B WREG, 0x2CD 
    1316    0A46         8058A1                MOV 0xB14, W1     
    1317    0A48         200EF0                MOV #0xEF, W0     
    1318    0A4A         508F80                SUB W1, W0, [W15] 
    1319    0A4C         360006                BRA LEU, 0xA5A    
    1320    0A4E         8058B1                MOV 0xB16, W1     
    1321    0A50         200EF0                MOV #0xEF, W0     
    1322    0A52         508F80                SUB W1, W0, [W15] 
    1323    0A54         360002                BRA LEU, 0xA5A    
    1324    0A56         EB0000                CLR W0            
    1325    0A58         8860B0                MOV W0, 0xC16     
    1326    0A5A         FA8000                ULNK              
    1327    0A5C         060000                RETURN            
    1328    0A5E         FA0000                LNK #0x0          
    1329    0A60         806070                MOV 0xC0E, W0     
    1330    0A62         DE0045                LSR W0, #5, W0    
    1331    0A64         B9006F                MUL.SU W0, #15, W0
    1332    0A66         DE00C4                LSR W0, #4, W1    
    1333    0A68         805B70                MOV 0xB6E, W0     
    1334    0A6A         508F80                SUB W1, W0, [W15] 
    1335    0A6C         31000D                BRA C, 0xA88      
    1336    0A6E         806130                MOV 0xC26, W0     
    1337    0A70         600070                AND W0, #0x10, W0 
    1338    0A72         E00000                CP0 W0            
    1339    0A74         3A0009                BRA NZ, 0xA88     
    1340    0A76         8040A0                MOV 0x814, W0     
    1341    0A78         500FE2                SUB W0, #0x2, [W15]
    1342    0A7A         3A0006                BRA NZ, 0xA88     
    1343    0A7C         806130                MOV 0xC26, W0     
    1344    0A7E         600064                AND W0, #0x4, W0  
    1345    0A80         E00000                CP0 W0            
    1346    0A82         320002                BRA Z, 0xA88      
    1347    0A84         A82C26                BSET 0xC26, #1    
    1348    0A86         370025                BRA 0xAD2         
    1349    0A88         805B71                MOV 0xB6E, W1     
    1350    0A8A         202930                MOV #0x293, W0    
    1351    0A8C         508F80                SUB W1, W0, [W15] 
    1352    0A8E         36000B                BRA LEU, 0xAA6    
    1353    0A90         8040A0                MOV 0x814, W0     
    1354    0A92         500FE4                SUB W0, #0x4, [W15]
    1355    0A94         3A0004                BRA NZ, 0xA9E     
    1356    0A96         8060B1                MOV 0xC16, W1     
    1357    0A98         805F90                MOV 0xBF2, W0     
    1358    0A9A         508F80                SUB W1, W0, [W15] 
    1359    0A9C         3E0004                BRA GTU, 0xAA6    
    1360    0A9E         805F40                MOV 0xBE8, W0     
    1361    0AA0         600062                AND W0, #0x2, W0  
    1362    0AA2         E00000                CP0 W0            
    1363    0AA4         320016                BRA Z, 0xAD2      
    1364    0AA6         A92C26                BCLR 0xC26, #1    
    1365    0AA8         EB0000                CLR W0            
    1366    0AAA         8860A0                MOV W0, 0xC14     
    1367    0AAC         805E40                MOV 0xBC8, W0     
    1368    0AAE         600061                AND W0, #0x1, W0  
    1369    0AB0         E00000                CP0 W0            
    1370    0AB2         320003                BRA Z, 0xABA      
    1371    0AB4         A90BC8                BCLR 0xBC8, #0    
    1372    0AB6         A902CD                BCLR 0x2CD, #0    
    1373    0AB8         A88BC8                BSET 0xBC8, #4    
    1374    0ABA         805B71                MOV 0xB6E, W1     
    1375    0ABC         2012B0                MOV #0x12B, W0    
    1376    0ABE         508F80                SUB W1, W0, [W15] 
    1377    0AC0         3E0008                BRA GTU, 0xAD2    
    1378    0AC2         805E40                MOV 0xBC8, W0     
    1379    0AC4         200201                MOV #0x20, W1     
    1380    0AC6         600001                AND W0, W1, W0    
    1381    0AC8         E00000                CP0 W0            
    1382    0ACA         320003                BRA Z, 0xAD2      
    1383    0ACC         A9ABC8                BCLR 0xBC8, #5    
    1384    0ACE         A9A2CC                BCLR LATB, #5     
    1385    0AD0         A88BC8                BSET 0xBC8, #4    
    1386    0AD2         8060A1                MOV 0xC14, W1     
    1387    0AD4         2015D0                MOV #0x15D, W0    
    1388    0AD6         508F80                SUB W1, W0, [W15] 
    1389    0AD8         360008                BRA LEU, 0xAEA    
    1390    0ADA         805E40                MOV 0xBC8, W0     
    1391    0ADC         600061                AND W0, #0x1, W0  
    1392    0ADE         E00000                CP0 W0            
    1393    0AE0         3A0004                BRA NZ, 0xAEA     
    1394    0AE2         A80BC8                BSET 0xBC8, #0    
    1395    0AE4         A8ABC8                BSET 0xBC8, #5    
    1396    0AE6         A8A2CC                BSET LATB, #5     
    1397    0AE8         A88BC8                BSET 0xBC8, #4    
    1398    0AEA         805E40                MOV 0xBC8, W0     
    1399    0AEC         600061                AND W0, #0x1, W0  
    1400    0AEE         E00000                CP0 W0            
    1401    0AF0         320003                BRA Z, 0xAF8      
    1402    0AF2         200050                MOV #0x5, W0      
    1403    0AF4         885A50                MOV W0, 0xB4A     
    1404    0AF6         370002                BRA 0xAFC         
    1405    0AF8         200C80                MOV #0xC8, W0     
    1406    0AFA         885A50                MOV W0, 0xB4A     
    1407    0AFC         805E40                MOV 0xBC8, W0     
    1408    0AFE         600064                AND W0, #0x4, W0  
    1409    0B00         E00000                CP0 W0            
    1410    0B02         3A0006                BRA NZ, 0xB10     
    1411    0B04         8063B0                MOV 0xC76, W0     
    1412    0B06         600061                AND W0, #0x1, W0  
    1413    0B08         E00000                CP0 W0            
    1414    0B0A         320002                BRA Z, 0xB10      
    1415    0B0C         A84BC8                BSET 0xBC8, #2    
    1416    0B0E         A88BC8                BSET 0xBC8, #4    
    1417    0B10         FA8000                ULNK              
    1418    0B12         060000                RETURN            
    1419    0B14         FA0000                LNK #0x0          
    1420    0B16         8059F0                MOV 0xB3E, W0     
    1421    0B18         E00000                CP0 W0            
    1422    0B1A         32000C                BRA Z, 0xB34      
    1423    0B1C         805A10                MOV 0xB42, W0     
    1424    0B1E         500FE1                SUB W0, #0x1, [W15]
    1425    0B20         360009                BRA LEU, 0xB34    
    1426    0B22         200020                MOV #0x2, W0      
    1427    0B24         885A10                MOV W0, 0xB42     
    1428    0B26         8059F0                MOV 0xB3E, W0     
    1429    0B28         E00000                CP0 W0            
    1430    0B2A         320004                BRA Z, 0xB34      
    1431    0B2C         EB0000                CLR W0            
    1432    0B2E         8859F0                MOV W0, 0xB3E     
    1433    0B30         200010                MOV #0x1, W0      
    1434    0B32         885A00                MOV W0, 0xB40     
    1435    0B34         805A00                MOV 0xB40, W0     
    1436    0B36         E00000                CP0 W0            
    1437    0B38         3A0004                BRA NZ, 0xB42     
    1438    0B3A         805B01                MOV 0xB60, W1     
    1439    0B3C         200240                MOV #0x24, W0     
    1440    0B3E         508F80                SUB W1, W0, [W15] 
    1441    0B40         3600D2                BRA LEU, 0xCE6    
    1442    0B42         805B00                MOV 0xB60, W0     
    1443    0B44         500FE3                SUB W0, #0x3, [W15]
    1444    0B46         3600CF                BRA LEU, 0xCE6    
    1445    0B48         805B00                MOV 0xB60, W0     
    1446    0B4A         E00000                CP0 W0            
    1447    0B4C         320005                BRA Z, 0xB58      
    1448    0B4E         805B02                MOV 0xB60, W2     
    1449    0B50         205DC0                MOV #0x5DC, W0    
    1450    0B52         090011                REPEAT #0x11      
    1451    0B54         D88002                DIV.UW W0, W2     
    1452    0B56         885E90                MOV W0, 0xBD2     
    1453    0B58         805990                MOV 0xB32, W0     
    1454    0B5A         DE00C2                LSR W0, #2, W1    
    1455    0B5C         8059A0                MOV 0xB34, W0     
    1456    0B5E         408080                ADD W1, W0, W1    
    1457    0B60         8059A0                MOV 0xB34, W0     
    1458    0B62         DE0042                LSR W0, #2, W0    
    1459    0B64         508000                SUB W1, W0, W0    
    1460    0B66         8859A0                MOV W0, 0xB34     
    1461    0B68         EB0000                CLR W0            
    1462    0B6A         885990                MOV W0, 0xB32     
    1463    0B6C         8059A0                MOV 0xB34, W0     
    1464    0B6E         B80161                MUL.UU W0, #1, W2 
    1465    0B70         2A8000                MOV #0xA800, W0   
    1466    0B72         2000B1                MOV #0xB, W1      
    1467    0B74         07FC18                RCALL 0x3A6       
    1468    0B76         8859B0                MOV W0, 0xB36     
    1469    0B78         805D44                MOV 0xBA8, W4     
    1470    0B7A         805D55                MOV 0xBAA, W5     
    1471    0B7C         805B00                MOV 0xB60, W0     
    1472    0B7E         B80161                MUL.UU W0, #1, W2 
    1473    0B80         BE0004                MOV.D W4, W0      
    1474    0B82         07FC11                RCALL 0x3A6       
    1475    0B84         BE0200                MOV.D W0, W4      
    1476    0B86         2000D0                MOV #0xD, W0      
    1477    0B88         B82300                MUL.UU W4, W0, W6 
    1478    0B8A         B92060                MUL.SU W4, #0, W0 
    1479    0B8C         780107                MOV W7, W2        
    1480    0B8E         410100                ADD W2, W0, W2    
    1481    0B90         B9286D                MUL.SU W5, #13, W0
    1482    0B92         410100                ADD W2, W0, W2    
    1483    0B94         780382                MOV W2, W7        
    1484    0B96         DD394A                SL W7, #10, W2    
    1485    0B98         DE3046                LSR W6, #6, W0    
    1486    0B9A         710000                IOR W2, W0, W0    
    1487    0B9C         DE38C6                LSR W7, #6, W1    
    1488    0B9E         885D60                MOV W0, 0xBAC     
    1489    0BA0         885D71                MOV W1, 0xBAE     
    1490    0BA2         B80060                MUL.UU W0, #0, W0 
    1491    0BA4         885D40                MOV W0, 0xBA8     
    1492    0BA6         885D51                MOV W1, 0xBAA     
    1493    0BA8         805DA4                MOV 0xBB4, W4     
    1494    0BAA         805DB5                MOV 0xBB6, W5     
    1495    0BAC         200190                MOV #0x19, W0     
    1496    0BAE         B82300                MUL.UU W4, W0, W6 
    1497    0BB0         B92060                MUL.SU W4, #0, W0 
    1498    0BB2         780107                MOV W7, W2        
    1499    0BB4         410100                ADD W2, W0, W2    
    1500    0BB6         B92879                MUL.SU W5, #25, W0
    1501    0BB8         410100                ADD W2, W0, W2    
    1502    0BBA         780382                MOV W2, W7        
    1503    0BBC         805B00                MOV 0xB60, W0     
    1504    0BBE         B80161                MUL.UU W0, #1, W2 
    1505    0BC0         BE0006                MOV.D W6, W0      
    1506    0BC2         07FBF1                RCALL 0x3A6       
    1507    0BC4         DD094C                SL W1, #12, W2    
    1508    0BC6         DE0044                LSR W0, #4, W0    
    1509    0BC8         710000                IOR W2, W0, W0    
    1510    0BCA         DE08C4                LSR W1, #4, W1    
    1511    0BCC         885A60                MOV W0, 0xB4C     
    1512    0BCE         B80060                MUL.UU W0, #0, W0 
    1513    0BD0         885DA0                MOV W0, 0xBB4     
    1514    0BD2         885DB1                MOV W1, 0xBB6     
    1515    0BD4         EB0000                CLR W0            
    1516    0BD6         885A00                MOV W0, 0xB40     
    1517    0BD8         EB0000                CLR W0            
    1518    0BDA         885B00                MOV W0, 0xB60     
    1519    0BDC         805A70                MOV 0xB4E, W0     
    1520    0BDE         885A80                MOV W0, 0xB50     
    1521    0BE0         805AC0                MOV 0xB58, W0     
    1522    0BE2         885AD0                MOV W0, 0xB5A     
    1523    0BE4         EB0000                CLR W0            
    1524    0BE6         885A70                MOV W0, 0xB4E     
    1525    0BE8         EB0000                CLR W0            
    1526    0BEA         885AC0                MOV W0, 0xB58     
    1527    0BEC         BFC2CA                MOV.B PORTB, WREG 
    1528    0BEE         604068                AND.B W0, #0x8, W0
    1529    0BF0         E00400                CP0.B W0          
    1530    0BF2         3A000E                BRA NZ, 0xC10     
    1531    0BF4         805E40                MOV 0xBC8, W0     
    1532    0BF6         600062                AND W0, #0x2, W0  
    1533    0BF8         E00000                CP0 W0            
    1534    0BFA         32000A                BRA Z, 0xC10      
    1535    0BFC         805A21                MOV 0xB44, W1     
    1536    0BFE         805A50                MOV 0xB4A, W0     
    1537    0C00         508F80                SUB W1, W0, [W15] 
    1538    0C02         360006                BRA LEU, 0xC10    
    1539    0C04         805B70                MOV 0xB6E, W0     
    1540    0C06         4000F9                ADD W0, #0x19, W1 
    1541    0C08         805970                MOV 0xB2E, W0     
    1542    0C0A         508F80                SUB W1, W0, [W15] 
    1543    0C0C         360001                BRA LEU, 0xC10    
    1544    0C0E         A862CC                BSET LATB, #3     
    1545    0C10         805A81                MOV 0xB50, W1     
    1546    0C12         201F50                MOV #0x1F5, W0    
    1547    0C14         508F80                SUB W1, W0, [W15] 
    1548    0C16         360009                BRA LEU, 0xC2A    
    1549    0C18         806130                MOV 0xC26, W0     
    1550    0C1A         200201                MOV #0x20, W1     
    1551    0C1C         600001                AND W0, W1, W0    
    1552    0C1E         E00000                CP0 W0            
    1553    0C20         3A0004                BRA NZ, 0xC2A     
    1554    0C22         A8AC26                BSET 0xC26, #5    
    1555    0C24         A8CC26                BSET 0xC26, #6    
    1556    0C26         A8CC76                BSET 0xC76, #6    
    1557    0C28         37000E                BRA 0xC46         
    1558    0C2A         805A81                MOV 0xB50, W1     
    1559    0C2C         201D50                MOV #0x1D5, W0    
    1560    0C2E         508F80                SUB W1, W0, [W15] 
    1561    0C30         3E000A                BRA GTU, 0xC46    
    1562    0C32         806130                MOV 0xC26, W0     
    1563    0C34         200201                MOV #0x20, W1     
    1564    0C36         600001                AND W0, W1, W0    
    1565    0C38         E00000                CP0 W0            
    1566    0C3A         320005                BRA Z, 0xC46      
    1567    0C3C         A9AC26                BCLR 0xC26, #5    
    1568    0C3E         A8CC26                BSET 0xC26, #6    
    1569    0C40         A9CC76                BCLR 0xC76, #6    
    1570    0C42         203FF0                MOV #0x3FF, W0    
    1571    0C44         882A10                MOV W0, CMPDAC1   
    1572    0C46         07FD18                RCALL 0x678       
    1573    0C48         805A91                MOV 0xB52, W1     
    1574    0C4A         805A90                MOV 0xB52, W0     
    1575    0C4C         D10000                LSR W0, W0        
    1576    0C4E         508080                SUB W1, W0, W1    
    1577    0C50         805A80                MOV 0xB50, W0     
    1578    0C52         D10000                LSR W0, W0        
    1579    0C54         408000                ADD W1, W0, W0    
    1580    0C56         885A90                MOV W0, 0xB52     
    1581    0C58         805A60                MOV 0xB4C, W0     
    1582    0C5A         200281                MOV #0x28, W1     
    1583    0C5C         408080                ADD W1, W0, W1    
    1584    0C5E         805A90                MOV 0xB52, W0     
    1585    0C60         508F80                SUB W1, W0, [W15] 
    1586    0C62         31000E                BRA C, 0xC80      
    1587    0C64         8040A0                MOV 0x814, W0     
    1588    0C66         500FE4                SUB W0, #0x4, [W15]
    1589    0C68         3A0008                BRA NZ, 0xC7A     
    1590    0C6A         805E40                MOV 0xBC8, W0     
    1591    0C6C         201001                MOV #0x100, W1    
    1592    0C6E         600001                AND W0, W1, W0    
    1593    0C70         E00000                CP0 W0            
    1594    0C72         3A0003                BRA NZ, 0xC7A     
    1595    0C74         805A90                MOV 0xB52, W0     
    1596    0C76         885AA0                MOV W0, 0xB54     
    1597    0C78         370005                BRA 0xC84         
    1598    0C7A         805A60                MOV 0xB4C, W0     
    1599    0C7C         885AA0                MOV W0, 0xB54     
    1600    0C7E         370002                BRA 0xC84         
    1601    0C80         805A90                MOV 0xB52, W0     
    1602    0C82         885AA0                MOV W0, 0xB54     
    1603    0C84         805A90                MOV 0xB52, W0     
    1604    0C86         885AB0                MOV W0, 0xB56     
    1605    0C88         805A90                MOV 0xB52, W0     
    1606    0C8A         B90063                MUL.SU W0, #3, W0 
    1607    0C8C         DE0045                LSR W0, #5, W0    
    1608    0C8E         500078                SUB W0, #0x18, W0 
    1609    0C90         885AF0                MOV W0, 0xB5E     
    1610    0C92         806131                MOV 0xC26, W1     
    1611    0C94         200400                MOV #0x40, W0     
    1612    0C96         608000                AND W1, W0, W0    
    1613    0C98         E00000                CP0 W0            
    1614    0C9A         32000F                BRA Z, 0xCBA      
    1615    0C9C         805A80                MOV 0xB50, W0     
    1616    0C9E         885AA0                MOV W0, 0xB54     
    1617    0CA0         806191                MOV 0xC32, W1     
    1618    0CA2         2428F0                MOV #0x428F, W0   
    1619    0CA4         780880                MOV W0, [W1]      
    1620    0CA6         806190                MOV 0xC32, W0     
    1621    0CA8         E88080                INC2 W0, W1       
    1622    0CAA         2C6660                MOV #0xC666, W0   
    1623    0CAC         780880                MOV W0, [W1]      
    1624    0CAE         806190                MOV 0xC32, W0     
    1625    0CB0         4000E4                ADD W0, #0x4, W1  
    1626    0CB2         EB0000                CLR W0            
    1627    0CB4         780880                MOV W0, [W1]      
    1628    0CB6         A9CC26                BCLR 0xC26, #6    
    1629    0CB8         37000F                BRA 0xCD8         
    1630    0CBA         806130                MOV 0xC26, W0     
    1631    0CBC         200201                MOV #0x20, W1     
    1632    0CBE         600001                AND W0, W1, W0    
    1633    0CC0         E00000                CP0 W0            
    1634    0CC2         3A0003                BRA NZ, 0xCCA     
    1635    0CC4         203FF0                MOV #0x3FF, W0    
    1636    0CC6         882A10                MOV W0, CMPDAC1   
    1637    0CC8         370007                BRA 0xCD8         
    1638    0CCA         806130                MOV 0xC26, W0     
    1639    0CCC         200201                MOV #0x20, W1     
    1640    0CCE         600001                AND W0, W1, W0    
    1641    0CD0         E00000                CP0 W0            
    1642    0CD2         320002                BRA Z, 0xCD8      
    1643    0CD4         202940                MOV #0x294, W0    
    1644    0CD6         882A10                MOV W0, CMPDAC1   
    1645    0CD8         806130                MOV 0xC26, W0     
    1646    0CDA         600061                AND W0, #0x1, W0  
    1647    0CDC         E00000                CP0 W0            
    1648    0CDE         320005                BRA Z, 0xCEA      
    1649    0CE0         805A90                MOV 0xB52, W0     
    1650    0CE2         8860C0                MOV W0, 0xC18     
    1651    0CE4         370002                BRA 0xCEA         
    1652    0CE6         EB0000                CLR W0            
    1653    0CE8         885A00                MOV W0, 0xB40     
    1654    0CEA         FA8000                ULNK              
    1655    0CEC         060000                RETURN            
    1656    0CEE         FA000C                LNK #0xC          
    1657    0CF0         781F88                MOV W8, [W15++]   
    1658    0CF2         806130                MOV 0xC26, W0     
    1659    0CF4         600064                AND W0, #0x4, W0  
    1660    0CF6         E00000                CP0 W0            
    1661    0CF8         320186                BRA Z, 0x1006     
    1662    0CFA         806330                MOV 0xC66, W0     
    1663    0CFC         500FE1                SUB W0, #0x1, [W15]
    1664    0CFE         320003                BRA Z, 0xD06      
    1665    0D00         805BC0                MOV 0xB78, W0     
    1666    0D02         500FE1                SUB W0, #0x1, [W15]
    1667    0D04         3A0021                BRA NZ, 0xD48     
    1668    0D06         806130                MOV 0xC26, W0     
    1669    0D08         200201                MOV #0x20, W1     
    1670    0D0A         600001                AND W0, W1, W0    
    1671    0D0C         E00000                CP0 W0            
    1672    0D0E         3A000C                BRA NZ, 0xD28     
    1673    0D10         806191                MOV 0xC32, W1     
    1674    0D12         2428F0                MOV #0x428F, W0   
    1675    0D14         780880                MOV W0, [W1]      
    1676    0D16         806190                MOV 0xC32, W0     
    1677    0D18         E88080                INC2 W0, W1       
    1678    0D1A         2C6660                MOV #0xC666, W0   
    1679    0D1C         780880                MOV W0, [W1]      
    1680    0D1E         806190                MOV 0xC32, W0     
    1681    0D20         4000E4                ADD W0, #0x4, W1  
    1682    0D22         EB0000                CLR W0            
    1683    0D24         780880                MOV W0, [W1]      
    1684    0D26         370010                BRA 0xD48         
    1685    0D28         806130                MOV 0xC26, W0     
    1686    0D2A         200201                MOV #0x20, W1     
    1687    0D2C         600001                AND W0, W1, W0    
    1688    0D2E         E00000                CP0 W0            
    1689    0D30         32000B                BRA Z, 0xD48      
    1690    0D32         806191                MOV 0xC32, W1     
    1691    0D34         25D700                MOV #0x5D70, W0   
    1692    0D36         780880                MOV W0, [W1]      
    1693    0D38         806190                MOV 0xC32, W0     
    1694    0D3A         E88080                INC2 W0, W1       
    1695    0D3C         2B3330                MOV #0xB333, W0   
    1696    0D3E         780880                MOV W0, [W1]      
    1697    0D40         806190                MOV 0xC32, W0     
    1698    0D42         4000E4                ADD W0, #0x4, W1  
    1699    0D44         EB0000                CLR W0            
    1700    0D46         780880                MOV W0, [W1]      
    1701    0D48         805A81                MOV 0xB50, W1     
    1702    0D4A         202C10                MOV #0x2C1, W0    
    1703    0D4C         508F80                SUB W1, W0, [W15] 
    1704    0D4E         360004                BRA LEU, 0xD58    
    1705    0D50         805A81                MOV 0xB50, W1     
    1706    0D52         202DF0                MOV #0x2DF, W0    
    1707    0D54         508F80                SUB W1, W0, [W15] 
    1708    0D56         360008                BRA LEU, 0xD68    
    1709    0D58         805A81                MOV 0xB50, W1     
    1710    0D5A         201590                MOV #0x159, W0    
    1711    0D5C         508F80                SUB W1, W0, [W15] 
    1712    0D5E         360006                BRA LEU, 0xD6C    
    1713    0D60         805A81                MOV 0xB50, W1     
    1714    0D62         201770                MOV #0x177, W0    
    1715    0D64         508F80                SUB W1, W0, [W15] 
    1716    0D66         3E0002                BRA GTU, 0xD6C    
    1717    0D68         A8EC26                BSET 0xC26, #7    
    1718    0D6A         370011                BRA 0xD8E         
    1719    0D6C         805A81                MOV 0xB50, W1     
    1720    0D6E         201440                MOV #0x144, W0    
    1721    0D70         508F80                SUB W1, W0, [W15] 
    1722    0D72         36000C                BRA LEU, 0xD8C    
    1723    0D74         805A81                MOV 0xB50, W1     
    1724    0D76         2018C0                MOV #0x18C, W0    
    1725    0D78         508F80                SUB W1, W0, [W15] 
    1726    0D7A         360004                BRA LEU, 0xD84    
    1727    0D7C         805A81                MOV 0xB50, W1     
    1728    0D7E         202AC0                MOV #0x2AC, W0    
    1729    0D80         508F80                SUB W1, W0, [W15] 
    1730    0D82         360004                BRA LEU, 0xD8C    
    1731    0D84         805A81                MOV 0xB50, W1     
    1732    0D86         202F40                MOV #0x2F4, W0    
    1733    0D88         508F80                SUB W1, W0, [W15] 
    1734    0D8A         360001                BRA LEU, 0xD8E    
    1735    0D8C         A9EC26                BCLR 0xC26, #7    
    1736    0D8E         805F40                MOV 0xBE8, W0     
    1737    0D90         600061                AND W0, #0x1, W0  
    1738    0D92         E00000                CP0 W0            
    1739    0D94         3A0004                BRA NZ, 0xD9E     
    1740    0D96         8062C0                MOV 0xC58, W0     
    1741    0D98         600064                AND W0, #0x4, W0  
    1742    0D9A         E00000                CP0 W0            
    1743    0D9C         3A0106                BRA NZ, 0xFAA     
    1744    0D9E         805FA0                MOV 0xBF4, W0     
    1745    0DA0         885BB0                MOV W0, 0xB76     
    1746    0DA2         805BB1                MOV 0xB76, W1     
    1747    0DA4         200940                MOV #0x94, W0     
    1748    0DA6         508F80                SUB W1, W0, [W15] 
    1749    0DA8         360002                BRA LEU, 0xDAE    
    1750    0DAA         200940                MOV #0x94, W0     
    1751    0DAC         885BB0                MOV W0, 0xB76     
    1752    0DAE         805BB1                MOV 0xB76, W1     
    1753    0DB0         2006B0                MOV #0x6B, W0     
    1754    0DB2         508F80                SUB W1, W0, [W15] 
    1755    0DB4         3E0002                BRA GTU, 0xDBA    
    1756    0DB6         2006C0                MOV #0x6C, W0     
    1757    0DB8         885BB0                MOV W0, 0xB76     
    1758    0DBA         8063B0                MOV 0xC76, W0     
    1759    0DBC         600070                AND W0, #0x10, W0 
    1760    0DBE         E00000                CP0 W0            
    1761    0DC0         320006                BRA Z, 0xDCE      
    1762    0DC2         A98C76                BCLR 0xC76, #4    
    1763    0DC4         805BB0                MOV 0xB76, W0     
    1764    0DC6         DD00C5                SL W0, #5, W1     
    1765    0DC8         25E200                MOV #0x5E20, W0   
    1766    0DCA         408000                ADD W1, W0, W0    
    1767    0DCC         886070                MOV W0, 0xC0E     
    1768    0DCE         806130                MOV 0xC26, W0     
    1769    0DD0         200201                MOV #0x20, W1     
    1770    0DD2         600001                AND W0, W1, W0    
    1771    0DD4         E00000                CP0 W0            
    1772    0DD6         3A005E                BRA NZ, 0xE94     
    1773    0DD8         805F81                MOV 0xBF0, W1     
    1774    0DDA         208400                MOV #0x840, W0    
    1775    0DDC         508F80                SUB W1, W0, [W15] 
    1776    0DDE         360006                BRA LEU, 0xDEC    
    1777    0DE0         805F81                MOV 0xBF0, W1     
    1778    0DE2         209BF0                MOV #0x9BF, W0    
    1779    0DE4         508F80                SUB W1, W0, [W15] 
    1780    0DE6         3E0002                BRA GTU, 0xDEC    
    1781    0DE8         A80C27                BSET 0xC27, #0    
    1782    0DEA         370009                BRA 0xDFE         
    1783    0DEC         805F81                MOV 0xBF0, W1     
    1784    0DEE         2077F0                MOV #0x77F, W0    
    1785    0DF0         508F80                SUB W1, W0, [W15] 
    1786    0DF2         360004                BRA LEU, 0xDFC    
    1787    0DF4         805F81                MOV 0xBF0, W1     
    1788    0DF6         20A800                MOV #0xA80, W0    
    1789    0DF8         508F80                SUB W1, W0, [W15] 
    1790    0DFA         360001                BRA LEU, 0xDFE    
    1791    0DFC         A90C27                BCLR 0xC27, #0    
    1792    0DFE         805F88                MOV 0xBF0, W8     
    1793    0E00         B94061                MUL.SU W8, #1, W0 
    1794    0E02         07FA46                RCALL 0x290       
    1795    0E04         980740                MOV W0, [W14+8]   
    1796    0E06         980751                MOV W1, [W14+10]  
    1797    0E08         E00008                CP0 W8            
    1798    0E0A         3D0007                BRA GE, 0xE1A     
    1799    0E0C         200002                MOV #0x0, W2      
    1800    0E0E         247803                MOV #0x4780, W3   
    1801    0E10         90004E                MOV [W14+8], W0   
    1802    0E12         9000DE                MOV [W14+10], W1  
    1803    0E14         07FA69                RCALL 0x2E8       
    1804    0E16         980740                MOV W0, [W14+8]   
    1805    0E18         980751                MOV W1, [W14+10]  
    1806    0E1A         EB4000                CLR.B W0          
    1807    0E1C         984760                MOV.B W0, [W14+6] 
    1808    0E1E         200002                MOV #0x0, W2      
    1809    0E20         244483                MOV #0x4448, W3   
    1810    0E22         90004E                MOV [W14+8], W0   
    1811    0E24         9000DE                MOV [W14+10], W1  
    1812    0E26         07FACF                RCALL 0x3C6       
    1813    0E28         E00000                CP0 W0            
    1814    0E2A         3C0001                BRA GT, 0xE2E     
    1815    0E2C         370002                BRA 0xE32         
    1816    0E2E         B3C010                MOV.B #0x1, W0    
    1817    0E30         984760                MOV.B W0, [W14+6] 
    1818    0E32         90406E                MOV.B [W14+6], W0 
    1819    0E34         A20400                BTG.B W0, #0      
    1820    0E36         E00400                CP0.B W0          
    1821    0E38         3A0020                BRA NZ, 0xE7A     
    1822    0E3A         805F88                MOV 0xBF0, W8     
    1823    0E3C         B94061                MUL.SU W8, #1, W0 
    1824    0E3E         07FA28                RCALL 0x290       
    1825    0E40         980710                MOV W0, [W14+2]   
    1826    0E42         980721                MOV W1, [W14+4]   
    1827    0E44         E00008                CP0 W8            
    1828    0E46         3D0007                BRA GE, 0xE56     
    1829    0E48         200002                MOV #0x0, W2      
    1830    0E4A         247803                MOV #0x4780, W3   
    1831    0E4C         90001E                MOV [W14+2], W0   
    1832    0E4E         9000AE                MOV [W14+4], W1   
    1833    0E50         07FA4B                RCALL 0x2E8       
    1834    0E52         980710                MOV W0, [W14+2]   
    1835    0E54         980721                MOV W1, [W14+4]   
    1836    0E56         EB4000                CLR.B W0          
    1837    0E58         784F00                MOV.B W0, [W14]   
    1838    0E5A         200002                MOV #0x0, W2      
    1839    0E5C         244843                MOV #0x4484, W3   
    1840    0E5E         90001E                MOV [W14+2], W0   
    1841    0E60         9000AE                MOV [W14+4], W1   
    1842    0E62         07FA9F                RCALL 0x3A2       
    1843    0E64         E00000                CP0 W0            
    1844    0E66         350001                BRA LT, 0xE6A     
    1845    0E68         370002                BRA 0xE6E         
    1846    0E6A         B3C010                MOV.B #0x1, W0    
    1847    0E6C         784F00                MOV.B W0, [W14]   
    1848    0E6E         78401E                MOV.B [W14], W0   
    1849    0E70         A20400                BTG.B W0, #0      
    1850    0E72         E00400                CP0.B W0          
    1851    0E74         3A0002                BRA NZ, 0xE7A     
    1852    0E76         A86C27                BSET 0xC27, #3    
    1853    0E78         370009                BRA 0xE8C         
    1854    0E7A         805F81                MOV 0xBF0, W1     
    1855    0E7C         202C00                MOV #0x2C0, W0    
    1856    0E7E         508F80                SUB W1, W0, [W15] 
    1857    0E80         360004                BRA LEU, 0xE8A    
    1858    0E82         805F81                MOV 0xBF0, W1     
    1859    0E84         204800                MOV #0x480, W0    
    1860    0E86         508F80                SUB W1, W0, [W15] 
    1861    0E88         360001                BRA LEU, 0xE8C    
    1862    0E8A         A96C27                BCLR 0xC27, #3    
    1863    0E8C         A92C27                BCLR 0xC27, #1    
    1864    0E8E         203910                MOV #0x391, W0    
    1865    0E90         885BF0                MOV W0, 0xB7E     
    1866    0E92         370038                BRA 0xF04         
    1867    0E94         806130                MOV 0xC26, W0     
    1868    0E96         200201                MOV #0x20, W1     
    1869    0E98         600001                AND W0, W1, W0    
    1870    0E9A         E00000                CP0 W0            
    1871    0E9C         320033                BRA Z, 0xF04      
    1872    0E9E         805F81                MOV 0xBF0, W1     
    1873    0EA0         20B400                MOV #0xB40, W0    
    1874    0EA2         508F80                SUB W1, W0, [W15] 
    1875    0EA4         360006                BRA LEU, 0xEB2    
    1876    0EA6         805F81                MOV 0xBF0, W1     
    1877    0EA8         20CFF0                MOV #0xCFF, W0    
    1878    0EAA         508F80                SUB W1, W0, [W15] 
    1879    0EAC         3E0002                BRA GTU, 0xEB2    
    1880    0EAE         A80C27                BSET 0xC27, #0    
    1881    0EB0         370009                BRA 0xEC4         
    1882    0EB2         805F81                MOV 0xBF0, W1     
    1883    0EB4         20A7F0                MOV #0xA7F, W0    
    1884    0EB6         508F80                SUB W1, W0, [W15] 
    1885    0EB8         360004                BRA LEU, 0xEC2    
    1886    0EBA         805F81                MOV 0xBF0, W1     
    1887    0EBC         20DC00                MOV #0xDC0, W0    
    1888    0EBE         508F80                SUB W1, W0, [W15] 
    1889    0EC0         360001                BRA LEU, 0xEC4    
    1890    0EC2         A90C27                BCLR 0xC27, #0    
    1891    0EC4         A96C27                BCLR 0xC27, #3    
    1892    0EC6         805F81                MOV 0xBF0, W1     
    1893    0EC8         217000                MOV #0x1700, W0   
    1894    0ECA         508F80                SUB W1, W0, [W15] 
    1895    0ECC         36000C                BRA LEU, 0xEE6    
    1896    0ECE         805F81                MOV 0xBF0, W1     
    1897    0ED0         21B7F0                MOV #0x1B7F, W0   
    1898    0ED2         508F80                SUB W1, W0, [W15] 
    1899    0ED4         3E0008                BRA GTU, 0xEE6    
    1900    0ED6         805A81                MOV 0xB50, W1     
    1901    0ED8         202CC0                MOV #0x2CC, W0    
    1902    0EDA         508F80                SUB W1, W0, [W15] 
    1903    0EDC         3E0004                BRA GTU, 0xEE6    
    1904    0EDE         A82C27                BSET 0xC27, #1    
    1905    0EE0         2039C0                MOV #0x39C, W0    
    1906    0EE2         885BF0                MOV W0, 0xB7E     
    1907    0EE4         37000F                BRA 0xF04         
    1908    0EE6         805F81                MOV 0xBF0, W1     
    1909    0EE8         215FF0                MOV #0x15FF, W0   
    1910    0EEA         508F80                SUB W1, W0, [W15] 
    1911    0EEC         360008                BRA LEU, 0xEFE    
    1912    0EEE         805F81                MOV 0xBF0, W1     
    1913    0EF0         21C800                MOV #0x1C80, W0   
    1914    0EF2         508F80                SUB W1, W0, [W15] 
    1915    0EF4         3E0004                BRA GTU, 0xEFE    
    1916    0EF6         805A81                MOV 0xB50, W1     
    1917    0EF8         202D60                MOV #0x2D6, W0    
    1918    0EFA         508F80                SUB W1, W0, [W15] 
    1919    0EFC         360003                BRA LEU, 0xF04    
    1920    0EFE         A92C27                BCLR 0xC27, #1    
    1921    0F00         203910                MOV #0x391, W0    
    1922    0F02         885BF0                MOV W0, 0xB7E     
    1923    0F04         806130                MOV 0xC26, W0     
    1924    0F06         200801                MOV #0x80, W1     
    1925    0F08         600001                AND W0, W1, W0    
    1926    0F0A         E00000                CP0 W0            
    1927    0F0C         32000B                BRA Z, 0xF24      
    1928    0F0E         806130                MOV 0xC26, W0     
    1929    0F10         201001                MOV #0x100, W1    
    1930    0F12         600001                AND W0, W1, W0    
    1931    0F14         E00000                CP0 W0            
    1932    0F16         320006                BRA Z, 0xF24      
    1933    0F18         805BB0                MOV 0xB76, W0     
    1934    0F1A         DD00C5                SL W0, #5, W1     
    1935    0F1C         255600                MOV #0x5560, W0   
    1936    0F1E         408000                ADD W1, W0, W0    
    1937    0F20         886080                MOV W0, 0xC10     
    1938    0F22         370020                BRA 0xF64         
    1939    0F24         806130                MOV 0xC26, W0     
    1940    0F26         200801                MOV #0x80, W1     
    1941    0F28         600001                AND W0, W1, W0    
    1942    0F2A         E00000                CP0 W0            
    1943    0F2C         32000B                BRA Z, 0xF44      
    1944    0F2E         806130                MOV 0xC26, W0     
    1945    0F30         208001                MOV #0x800, W1    
    1946    0F32         600001                AND W0, W1, W0    
    1947    0F34         E00000                CP0 W0            
    1948    0F36         320006                BRA Z, 0xF44      
    1949    0F38         805BB0                MOV 0xB76, W0     
    1950    0F3A         DD00C5                SL W0, #5, W1     
    1951    0F3C         254800                MOV #0x5480, W0   
    1952    0F3E         408000                ADD W1, W0, W0    
    1953    0F40         886080                MOV W0, 0xC10     
    1954    0F42         370010                BRA 0xF64         
    1955    0F44         806130                MOV 0xC26, W0     
    1956    0F46         202001                MOV #0x200, W1    
    1957    0F48         600001                AND W0, W1, W0    
    1958    0F4A         E00000                CP0 W0            
    1959    0F4C         320006                BRA Z, 0xF5A      
    1960    0F4E         805BB0                MOV 0xB76, W0     
    1961    0F50         DD00C5                SL W0, #5, W1     
    1962    0F52         25F800                MOV #0x5F80, W0   
    1963    0F54         408000                ADD W1, W0, W0    
    1964    0F56         886080                MOV W0, 0xC10     
    1965    0F58         370005                BRA 0xF64         
    1966    0F5A         805BB0                MOV 0xB76, W0     
    1967    0F5C         DD00C5                SL W0, #5, W1     
    1968    0F5E         25E200                MOV #0x5E20, W0   
    1969    0F60         408000                ADD W1, W0, W0    
    1970    0F62         886080                MOV W0, 0xC10     
    1971    0F64         806081                MOV 0xC10, W1     
    1972    0F66         806070                MOV 0xC0E, W0     
    1973    0F68         508F80                SUB W1, W0, [W15] 
    1974    0F6A         310009                BRA C, 0xF7E      
    1975    0F6C         8060E0                MOV 0xC1C, W0     
    1976    0F6E         500FE4                SUB W0, #0x4, [W15]
    1977    0F70         360012                BRA LEU, 0xF96    
    1978    0F72         EB0000                CLR W0            
    1979    0F74         8860E0                MOV W0, 0xC1C     
    1980    0F76         806070                MOV 0xC0E, W0     
    1981    0F78         E90000                DEC W0, W0        
    1982    0F7A         886070                MOV W0, 0xC0E     
    1983    0F7C         37000C                BRA 0xF96         
    1984    0F7E         806081                MOV 0xC10, W1     
    1985    0F80         806070                MOV 0xC0E, W0     
    1986    0F82         508F80                SUB W1, W0, [W15] 
    1987    0F84         360008                BRA LEU, 0xF96    
    1988    0F86         8060E0                MOV 0xC1C, W0     
    1989    0F88         500FE4                SUB W0, #0x4, [W15]
    1990    0F8A         360005                BRA LEU, 0xF96    
    1991    0F8C         EB0000                CLR W0            
    1992    0F8E         8860E0                MOV W0, 0xC1C     
    1993    0F90         806070                MOV 0xC0E, W0     
    1994    0F92         E80000                INC W0, W0        
    1995    0F94         886070                MOV W0, 0xC0E     
    1996    0F96         A96C76                BCLR 0xC76, #3    
    1997    0F98         BFC423                MOV.B 0x423, WREG 
    1998    0F9A         B3C801                MOV.B #0x80, W1   
    1999    0F9C         604001                AND.B W0, W1, W0  
    2000    0F9E         E00400                CP0.B W0          
    2001    0FA0         3A001F                BRA NZ, 0xFE0     
    2002    0FA2         A8E423                BSET 0x423, #7    
    2003    0FA4         258600                MOV #0x5860, W0   
    2004    0FA6         886090                MOV W0, 0xC12     
    2005    0FA8         37001B                BRA 0xFE0         
    2006    0FAA         A88C76                BSET 0xC76, #4    
    2007    0FAC         A90C27                BCLR 0xC27, #0    
    2008    0FAE         EB0000                CLR W0            
    2009    0FB0         8860E0                MOV W0, 0xC1C     
    2010    0FB2         806131                MOV 0xC26, W1     
    2011    0FB4         200800                MOV #0x80, W0     
    2012    0FB6         608000                AND W1, W0, W0    
    2013    0FB8         E00000                CP0 W0            
    2014    0FBA         320003                BRA Z, 0xFC2      
    2015    0FBC         258600                MOV #0x5860, W0   
    2016    0FBE         886070                MOV W0, 0xC0E     
    2017    0FC0         370002                BRA 0xFC6         
    2018    0FC2         26E200                MOV #0x6E20, W0   
    2019    0FC4         886070                MOV W0, 0xC0E     
    2020    0FC6         805A81                MOV 0xB50, W1     
    2021    0FC8         202C30                MOV #0x2C3, W0    
    2022    0FCA         508F80                SUB W1, W0, [W15] 
    2023    0FCC         360007                BRA LEU, 0xFDC    
    2024    0FCE         A86C76                BSET 0xC76, #3    
    2025    0FD0         20C320                MOV #0xC32, W0    
    2026    0FD2         07FAAF                RCALL 0x532       
    2027    0FD4         805A80                MOV 0xB50, W0     
    2028    0FD6         886090                MOV W0, 0xC12     
    2029    0FD8         A9E423                BCLR 0x423, #7    
    2030    0FDA         370002                BRA 0xFE0         
    2031    0FDC         A96C76                BCLR 0xC76, #3    
    2032    0FDE         A8E423                BSET 0x423, #7    
    2033    0FE0         806070                MOV 0xC0E, W0     
    2034    0FE2         DE00C5                LSR W0, #5, W1    
    2035    0FE4         2FFDD0                MOV #0xFFDD, W0   
    2036    0FE6         408000                ADD W1, W0, W0    
    2037    0FE8         885BD0                MOV W0, 0xB7A     
    2038    0FEA         8040A0                MOV 0x814, W0     
    2039    0FEC         500FE2                SUB W0, #0x2, [W15]
    2040    0FEE         3A0008                BRA NZ, 0x1000    
    2041    0FF0         806091                MOV 0xC12, W1     
    2042    0FF2         806070                MOV 0xC0E, W0     
    2043    0FF4         508F80                SUB W1, W0, [W15] 
    2044    0FF6         310004                BRA C, 0x1000     
    2045    0FF8         806090                MOV 0xC12, W0     
    2046    0FFA         886180                MOV W0, 0xC30     
    2047    0FFC         A88C26                BSET 0xC26, #4    
    2048    0FFE         370003                BRA 0x1006        
    2049    1000         806070                MOV 0xC0E, W0     
    2050    1002         886180                MOV W0, 0xC30     
    2051    1004         A98C26                BCLR 0xC26, #4    
    2052    1006         78044F                MOV [--W15], W8   
    2053    1008         FA8000                ULNK              
    2054    100A         060000                RETURN            
    2055    100C         FA0000                LNK #0x0          
    2056    100E         A94086                BCLR IFS1, #2     
    2057    1010         FA8000                ULNK              
    2058    1012         064000                RETFIE            
    2059    1014         FA0000                LNK #0x0          
    2060    1016         806060                MOV 0xC0C, W0     
    2061    1018         600061                AND W0, #0x1, W0  
    2062    101A         E00000                CP0 W0            
    2063    101C         320003                BRA Z, 0x1024     
    2064    101E         A90C0C                BCLR 0xC0C, #0    
    2065    1020         200010                MOV #0x1, W0      
    2066    1022         885FB0                MOV W0, 0xBF6     
    2067    1024         A84C0C                BSET 0xC0C, #2    
    2068    1026         A96C0C                BCLR 0xC0C, #3    
    2069    1028         A98C0C                BCLR 0xC0C, #4    
    2070    102A         805E40                MOV 0xBC8, W0     
    2071    102C         886030                MOV W0, 0xC06     
    2072    102E         BFCC07                MOV.B 0xC07, WREG 
    2073    1030         FB8080                ZE W0, W1         
    2074    1032         BFCC06                MOV.B 0xC06, WREG 
    2075    1034         FB8000                ZE W0, W0         
    2076    1036         408080                ADD W1, W0, W1    
    2077    1038         200FF0                MOV #0xFF, W0     
    2078    103A         608080                AND W1, W0, W1    
    2079    103C         201000                MOV #0x100, W0    
    2080    103E         500001                SUB W0, W1, W0    
    2081    1040         780080                MOV W0, W1        
    2082    1042         200FF0                MOV #0xFF, W0     
    2083    1044         608000                AND W1, W0, W0    
    2084    1046         886040                MOV W0, 0xC08     
    2085    1048         BFC223                MOV.B 0x223, WREG 
    2086    104A         604061                AND.B W0, #0x1, W0
    2087    104C         E00400                CP0.B W0          
    2088    104E         32FFFC                BRA Z, 0x1048     
    2089    1050         200EA0                MOV #0xEA, W0     
    2090    1052         881120                MOV W0, U1TXREG   
    2091    1054         EB0000                CLR W0            
    2092    1056         886390                MOV W0, 0xC72     
    2093    1058         200010                MOV #0x1, W0      
    2094    105A         886020                MOV W0, 0xC04     
    2095    105C         FA8000                ULNK              
    2096    105E         060000                RETURN            
    2097    1060         FA0002                LNK #0x2          
    2098    1062         805FD0                MOV 0xBFA, W0     
    2099    1064         D10000                LSR W0, W0        
    2100    1066         806002                MOV 0xC00, W2     
    2101    1068         400080                ADD W0, W0, W1    
    2102    106A         20BC80                MOV #0xBC8, W0    
    2103    106C         408000                ADD W1, W0, W0    
    2104    106E         780802                MOV W2, [W0]      
    2105    1070         805FD0                MOV 0xBFA, W0     
    2106    1072         780F00                MOV W0, [W14]     
    2107    1074         200200                MOV #0x20, W0     
    2108    1076         78009E                MOV [W14], W1     
    2109    1078         508F80                SUB W1, W0, [W15] 
    2110    107A         320005                BRA Z, 0x1086     
    2111    107C         200280                MOV #0x28, W0     
    2112    107E         78009E                MOV [W14], W1     
    2113    1080         508F80                SUB W1, W0, [W15] 
    2114    1082         320003                BRA Z, 0x108A     
    2115    1084         370039                BRA 0x10F8        
    2116    1086         070976                RCALL 0x2374      
    2117    1088         370037                BRA 0x10F8        
    2118    108A         806130                MOV 0xC26, W0     
    2119    108C         600061                AND W0, #0x1, W0  
    2120    108E         E00000                CP0 W0            
    2121    1090         320033                BRA Z, 0x10F8     
    2122    1092         805F81                MOV 0xBF0, W1     
    2123    1094         20DFF0                MOV #0xDFF, W0    
    2124    1096         508F80                SUB W1, W0, [W15] 
    2125    1098         36000D                BRA LEU, 0x10B4   
    2126    109A         805F80                MOV 0xBF0, W0     
    2127    109C         B90065                MUL.SU W0, #5, W0 
    2128    109E         DE0049                LSR W0, #9, W0    
    2129    10A0         8863A0                MOV W0, 0xC74     
    2130    10A2         8063A1                MOV 0xC74, W1     
    2131    10A4         2005E0                MOV #0x5E, W0     
    2132    10A6         508F80                SUB W1, W0, [W15] 
    2133    10A8         3E0022                BRA GTU, 0x10EE   
    2134    10AA         8063A0                MOV 0xC74, W0     
    2135    10AC         2005F1                MOV #0x5F, W1     
    2136    10AE         508000                SUB W1, W0, W0    
    2137    10B0         885F90                MOV W0, 0xBF2     
    2138    10B2         37001D                BRA 0x10EE        
    2139    10B4         805F81                MOV 0xBF0, W1     
    2140    10B6         208320                MOV #0x832, W0    
    2141    10B8         508F80                SUB W1, W0, [W15] 
    2142    10BA         36000D                BRA LEU, 0x10D6   
    2143    10BC         805F80                MOV 0xBF0, W0     
    2144    10BE         B90065                MUL.SU W0, #5, W0 
    2145    10C0         DE0048                LSR W0, #8, W0    
    2146    10C2         8863A0                MOV W0, 0xC74     
    2147    10C4         8063A1                MOV 0xC74, W1     
    2148    10C6         2007F0                MOV #0x7F, W0     
    2149    10C8         508F80                SUB W1, W0, [W15] 
    2150    10CA         3E0011                BRA GTU, 0x10EE   
    2151    10CC         8063A0                MOV 0xC74, W0     
    2152    10CE         200801                MOV #0x80, W1     
    2153    10D0         508000                SUB W1, W0, W0    
    2154    10D2         885F90                MOV W0, 0xBF2     
    2155    10D4         37000C                BRA 0x10EE        
    2156    10D6         805F80                MOV 0xBF0, W0     
    2157    10D8         B90065                MUL.SU W0, #5, W0 
    2158    10DA         DE0047                LSR W0, #7, W0    
    2159    10DC         8863A0                MOV W0, 0xC74     
    2160    10DE         8063A1                MOV 0xC74, W1     
    2161    10E0         200A80                MOV #0xA8, W0     
    2162    10E2         508F80                SUB W1, W0, [W15] 
    2163    10E4         3E0004                BRA GTU, 0x10EE   
    2164    10E6         8063A0                MOV 0xC74, W0     
    2165    10E8         200A91                MOV #0xA9, W1     
    2166    10EA         508000                SUB W1, W0, W0    
    2167    10EC         885F90                MOV W0, 0xBF2     
    2168    10EE         805F90                MOV 0xBF2, W0     
    2169    10F0         500FFD                SUB W0, #0x1D, [W15]
    2170    10F2         3E0002                BRA GTU, 0x10F8   
    2171    10F4         2001E0                MOV #0x1E, W0     
    2172    10F6         885F90                MOV W0, 0xBF2     
    2173    10F8         FA8000                ULNK              
    2174    10FA         060000                RETURN            
    2175    10FC         F80036                PUSH RCOUNT       
    2176    10FE         BE9F80                MOV.D W0, [W15++] 
    2177    1100         BE9F82                MOV.D W2, [W15++] 
    2178    1102         BE9F84                MOV.D W4, [W15++] 
    2179    1104         BE9F86                MOV.D W6, [W15++] 
    2180    1106         FA0004                LNK #0x4          
    2181    1108         BFC222                MOV.B U1STA, WREG 
    2182    110A         604062                AND.B W0, #0x2, W0
    2183    110C         E00400                CP0.B W0          
    2184    110E         320001                BRA Z, 0x1112     
    2185    1110         A92222                BCLR U1STA, #1    
    2186    1112         BFC222                MOV.B U1STA, WREG 
    2187    1114         801130                MOV U1RXREG, W0   
    2188    1116         885FC0                MOV W0, 0xBF8     
    2189    1118         806060                MOV 0xC0C, W0     
    2190    111A         600064                AND W0, #0x4, W0  
    2191    111C         E00000                CP0 W0            
    2192    111E         3A0131                BRA NZ, 0x1382    
    2193    1120         805FB0                MOV 0xBF6, W0     
    2194    1122         980710                MOV W0, [W14+2]   
    2195    1124         90001E                MOV [W14+2], W0   
    2196    1126         500FE4                SUB W0, #0x4, [W15]
    2197    1128         32008B                BRA Z, 0x1240     
    2198    112A         90001E                MOV [W14+2], W0   
    2199    112C         500FE4                SUB W0, #0x4, [W15]
    2200    112E         3E000A                BRA GTU, 0x1144   
    2201    1130         90001E                MOV [W14+2], W0   
    2202    1132         500FE2                SUB W0, #0x2, [W15]
    2203    1134         320029                BRA Z, 0x1188     
    2204    1136         90001E                MOV [W14+2], W0   
    2205    1138         500FE2                SUB W0, #0x2, [W15]
    2206    113A         3E0046                BRA GTU, 0x11C8   
    2207    113C         90001E                MOV [W14+2], W0   
    2208    113E         500FE1                SUB W0, #0x1, [W15]
    2209    1140         32000B                BRA Z, 0x1158     
    2210    1142         37011C                BRA 0x137C        
    2211    1144         90001E                MOV [W14+2], W0   
    2212    1146         500FE6                SUB W0, #0x6, [W15]
    2213    1148         3200E7                BRA Z, 0x1318     
    2214    114A         90001E                MOV [W14+2], W0   
    2215    114C         500FE6                SUB W0, #0x6, [W15]
    2216    114E         3900A5                BRA NC, 0x129A    
    2217    1150         90001E                MOV [W14+2], W0   
    2218    1152         500FE7                SUB W0, #0x7, [W15]
    2219    1154         320108                BRA Z, 0x1366     
    2220    1156         370112                BRA 0x137C        
    2221    1158         805FC0                MOV 0xBF8, W0     
    2222    115A         500FE5                SUB W0, #0x5, [W15]
    2223    115C         320004                BRA Z, 0x1166     
    2224    115E         805FC1                MOV 0xBF8, W1     
    2225    1160         200500                MOV #0x50, W0     
    2226    1162         508F80                SUB W1, W0, [W15] 
    2227    1164         3A016F                BRA NZ, 0x1444    
    2228    1166         BFC223                MOV.B 0x223, WREG 
    2229    1168         604061                AND.B W0, #0x1, W0
    2230    116A         E00400                CP0.B W0          
    2231    116C         32FFFC                BRA Z, 0x1166     
    2232    116E         200180                MOV #0x18, W0     
    2233    1170         881120                MOV W0, U1TXREG   
    2234    1172         805FB0                MOV 0xBF6, W0     
    2235    1174         E80000                INC W0, W0        
    2236    1176         885FB0                MOV W0, 0xBF6     
    2237    1178         805FC0                MOV 0xBF8, W0     
    2238    117A         500FE5                SUB W0, #0x5, [W15]
    2239    117C         3A0002                BRA NZ, 0x1182    
    2240    117E         A92C0C                BCLR 0xC0C, #1    
    2241    1180         370001                BRA 0x1184        
    2242    1182         A82C0C                BSET 0xC0C, #1    
    2243    1184         A80C0C                BSET 0xC0C, #0    
    2244    1186         37015E                BRA 0x1444        
    2245    1188         806060                MOV 0xC0C, W0     
    2246    118A         600061                AND W0, #0x1, W0  
    2247    118C         E00000                CP0 W0            
    2248    118E         320019                BRA Z, 0x11C2     
    2249    1190         BFC223                MOV.B 0x223, WREG 
    2250    1192         604061                AND.B W0, #0x1, W0
    2251    1194         E00400                CP0.B W0          
    2252    1196         32FFFC                BRA Z, 0x1190     
    2253    1198         200180                MOV #0x18, W0     
    2254    119A         881120                MOV W0, U1TXREG   
    2255    119C         805FB0                MOV 0xBF6, W0     
    2256    119E         E80000                INC W0, W0        
    2257    11A0         885FB0                MOV W0, 0xBF6     
    2258    11A2         805FC0                MOV 0xBF8, W0     
    2259    11A4         885FD0                MOV W0, 0xBFA     
    2260    11A6         805FC0                MOV 0xBF8, W0     
    2261    11A8         885FE0                MOV W0, 0xBFC     
    2262    11AA         806060                MOV 0xC0C, W0     
    2263    11AC         600062                AND W0, #0x2, W0  
    2264    11AE         E00000                CP0 W0            
    2265    11B0         3A0149                BRA NZ, 0x1444    
    2266    11B2         805FD0                MOV 0xBFA, W0     
    2267    11B4         D10000                LSR W0, W0        
    2268    11B6         400080                ADD W0, W0, W1    
    2269    11B8         20BC80                MOV #0xBC8, W0    
    2270    11BA         408000                ADD W1, W0, W0    
    2271    11BC         780010                MOV [W0], W0      
    2272    11BE         886010                MOV W0, 0xC02     
    2273    11C0         370141                BRA 0x1444        
    2274    11C2         200010                MOV #0x1, W0      
    2275    11C4         885FB0                MOV W0, 0xBF6     
    2276    11C6         37013E                BRA 0x1444        
    2277    11C8         806060                MOV 0xC0C, W0     
    2278    11CA         600061                AND W0, #0x1, W0  
    2279    11CC         E00000                CP0 W0            
    2280    11CE         320035                BRA Z, 0x123A     
    2281    11D0         806060                MOV 0xC0C, W0     
    2282    11D2         600062                AND W0, #0x2, W0  
    2283    11D4         E00000                CP0 W0            
    2284    11D6         3A001D                BRA NZ, 0x1212    
    2285    11D8         805FE1                MOV 0xBFC, W1     
    2286    11DA         805FC0                MOV 0xBF8, W0     
    2287    11DC         408000                ADD W1, W0, W0    
    2288    11DE         885FE0                MOV W0, 0xBFC     
    2289    11E0         805FE1                MOV 0xBFC, W1     
    2290    11E2         200FF0                MOV #0xFF, W0     
    2291    11E4         608000                AND W1, W0, W0    
    2292    11E6         E00000                CP0 W0            
    2293    11E8         3A000A                BRA NZ, 0x11FE    
    2294    11EA         BFC223                MOV.B 0x223, WREG 
    2295    11EC         604061                AND.B W0, #0x1, W0
    2296    11EE         E00400                CP0.B W0          
    2297    11F0         32FFFC                BRA Z, 0x11EA     
    2298    11F2         200070                MOV #0x7, W0      
    2299    11F4         881120                MOV W0, U1TXREG   
    2300    11F6         805FB0                MOV 0xBF6, W0     
    2301    11F8         E80000                INC W0, W0        
    2302    11FA         885FB0                MOV W0, 0xBF6     
    2303    11FC         370123                BRA 0x1444        
    2304    11FE         BFC223                MOV.B 0x223, WREG 
    2305    1200         604061                AND.B W0, #0x1, W0
    2306    1202         E00400                CP0.B W0          
    2307    1204         32FFFC                BRA Z, 0x11FE     
    2308    1206         200810                MOV #0x81, W0     
    2309    1208         881120                MOV W0, U1TXREG   
    2310    120A         200010                MOV #0x1, W0      
    2311    120C         885FB0                MOV W0, 0xBF6     
    2312    120E         A90C0C                BCLR 0xC0C, #0    
    2313    1210         370119                BRA 0x1444        
    2314    1212         806060                MOV 0xC0C, W0     
    2315    1214         600062                AND W0, #0x2, W0  
    2316    1216         E00000                CP0 W0            
    2317    1218         320115                BRA Z, 0x1444     
    2318    121A         BFC223                MOV.B 0x223, WREG 
    2319    121C         604061                AND.B W0, #0x1, W0
    2320    121E         E00400                CP0.B W0          
    2321    1220         32FFFC                BRA Z, 0x121A     
    2322    1222         200180                MOV #0x18, W0     
    2323    1224         881120                MOV W0, U1TXREG   
    2324    1226         805FB0                MOV 0xBF6, W0     
    2325    1228         E80000                INC W0, W0        
    2326    122A         885FB0                MOV W0, 0xBF6     
    2327    122C         805FC0                MOV 0xBF8, W0     
    2328    122E         B7EC01                MOV.B WREG, 0xC01 
    2329    1230         805FE1                MOV 0xBFC, W1     
    2330    1232         805FC0                MOV 0xBF8, W0     
    2331    1234         408000                ADD W1, W0, W0    
    2332    1236         885FE0                MOV W0, 0xBFC     
    2333    1238         370105                BRA 0x1444        
    2334    123A         200010                MOV #0x1, W0      
    2335    123C         885FB0                MOV W0, 0xBF6     
    2336    123E         370102                BRA 0x1444        
    2337    1240         806060                MOV 0xC0C, W0     
    2338    1242         600061                AND W0, #0x1, W0  
    2339    1244         E00000                CP0 W0            
    2340    1246         320026                BRA Z, 0x1294     
    2341    1248         806060                MOV 0xC0C, W0     
    2342    124A         600062                AND W0, #0x2, W0  
    2343    124C         E00000                CP0 W0            
    2344    124E         3A000E                BRA NZ, 0x126C    
    2345    1250         BFC223                MOV.B 0x223, WREG 
    2346    1252         604061                AND.B W0, #0x1, W0
    2347    1254         E00400                CP0.B W0          
    2348    1256         32FFFC                BRA Z, 0x1250     
    2349    1258         BFCC03                MOV.B 0xC03, WREG 
    2350    125A         FB8000                ZE W0, W0         
    2351    125C         881120                MOV W0, U1TXREG   
    2352    125E         BFCC03                MOV.B 0xC03, WREG 
    2353    1260         FB8000                ZE W0, W0         
    2354    1262         885FF0                MOV W0, 0xBFE     
    2355    1264         805FB0                MOV 0xBF6, W0     
    2356    1266         E80000                INC W0, W0        
    2357    1268         885FB0                MOV W0, 0xBF6     
    2358    126A         3700EC                BRA 0x1444        
    2359    126C         806060                MOV 0xC0C, W0     
    2360    126E         600062                AND W0, #0x2, W0  
    2361    1270         E00000                CP0 W0            
    2362    1272         3200E8                BRA Z, 0x1444     
    2363    1274         BFC223                MOV.B 0x223, WREG 
    2364    1276         604061                AND.B W0, #0x1, W0
    2365    1278         E00400                CP0.B W0          
    2366    127A         32FFFC                BRA Z, 0x1274     
    2367    127C         200180                MOV #0x18, W0     
    2368    127E         881120                MOV W0, U1TXREG   
    2369    1280         805FB0                MOV 0xBF6, W0     
    2370    1282         E80000                INC W0, W0        
    2371    1284         885FB0                MOV W0, 0xBF6     
    2372    1286         805FC0                MOV 0xBF8, W0     
    2373    1288         B7EC00                MOV.B WREG, 0xC00 
    2374    128A         805FE1                MOV 0xBFC, W1     
    2375    128C         805FC0                MOV 0xBF8, W0     
    2376    128E         408000                ADD W1, W0, W0    
    2377    1290         885FE0                MOV W0, 0xBFC     
    2378    1292         3700D8                BRA 0x1444        
    2379    1294         200010                MOV #0x1, W0      
    2380    1296         885FB0                MOV W0, 0xBF6     
    2381    1298         3700D5                BRA 0x1444        
    2382    129A         806060                MOV 0xC0C, W0     
    2383    129C         600061                AND W0, #0x1, W0  
    2384    129E         E00000                CP0 W0            
    2385    12A0         320038                BRA Z, 0x1312     
    2386    12A2         806060                MOV 0xC0C, W0     
    2387    12A4         600062                AND W0, #0x2, W0  
    2388    12A6         E00000                CP0 W0            
    2389    12A8         3A0010                BRA NZ, 0x12CA    
    2390    12AA         BFC223                MOV.B 0x223, WREG 
    2391    12AC         604061                AND.B W0, #0x1, W0
    2392    12AE         E00400                CP0.B W0          
    2393    12B0         32FFFC                BRA Z, 0x12AA     
    2394    12B2         BFCC02                MOV.B 0xC02, WREG 
    2395    12B4         FB8000                ZE W0, W0         
    2396    12B6         881120                MOV W0, U1TXREG   
    2397    12B8         805FF1                MOV 0xBFE, W1     
    2398    12BA         BFCC02                MOV.B 0xC02, WREG 
    2399    12BC         FB8000                ZE W0, W0         
    2400    12BE         408000                ADD W1, W0, W0    
    2401    12C0         885FF0                MOV W0, 0xBFE     
    2402    12C2         805FB0                MOV 0xBF6, W0     
    2403    12C4         E80000                INC W0, W0        
    2404    12C6         885FB0                MOV W0, 0xBF6     
    2405    12C8         3700BD                BRA 0x1444        
    2406    12CA         806060                MOV 0xC0C, W0     
    2407    12CC         600062                AND W0, #0x2, W0  
    2408    12CE         E00000                CP0 W0            
    2409    12D0         3200B9                BRA Z, 0x1444     
    2410    12D2         805FE1                MOV 0xBFC, W1     
    2411    12D4         805FC0                MOV 0xBF8, W0     
    2412    12D6         408000                ADD W1, W0, W0    
    2413    12D8         885FE0                MOV W0, 0xBFC     
    2414    12DA         805FE1                MOV 0xBFC, W1     
    2415    12DC         200FF0                MOV #0xFF, W0     
    2416    12DE         608000                AND W1, W0, W0    
    2417    12E0         E00000                CP0 W0            
    2418    12E2         3A000D                BRA NZ, 0x12FE    
    2419    12E4         BFC223                MOV.B 0x223, WREG 
    2420    12E6         604061                AND.B W0, #0x1, W0
    2421    12E8         E00400                CP0.B W0          
    2422    12EA         32FFFC                BRA Z, 0x12E4     
    2423    12EC         200700                MOV #0x70, W0     
    2424    12EE         881120                MOV W0, U1TXREG   
    2425    12F0         805FB0                MOV 0xBF6, W0     
    2426    12F2         E80000                INC W0, W0        
    2427    12F4         885FB0                MOV W0, 0xBF6     
    2428    12F6         805FC0                MOV 0xBF8, W0     
    2429    12F8         885FE0                MOV W0, 0xBFC     
    2430    12FA         07FEB2                RCALL 0x1060      
    2431    12FC         3700A3                BRA 0x1444        
    2432    12FE         BFC223                MOV.B 0x223, WREG 
    2433    1300         604061                AND.B W0, #0x1, W0
    2434    1302         E00400                CP0.B W0          
    2435    1304         32FFFC                BRA Z, 0x12FE     
    2436    1306         200810                MOV #0x81, W0     
    2437    1308         881120                MOV W0, U1TXREG   
    2438    130A         200010                MOV #0x1, W0      
    2439    130C         885FB0                MOV W0, 0xBF6     
    2440    130E         A90C0C                BCLR 0xC0C, #0    
    2441    1310         370099                BRA 0x1444        
    2442    1312         200010                MOV #0x1, W0      
    2443    1314         885FB0                MOV W0, 0xBF6     
    2444    1316         370096                BRA 0x1444        
    2445    1318         806060                MOV 0xC0C, W0     
    2446    131A         600061                AND W0, #0x1, W0  
    2447    131C         E00000                CP0 W0            
    2448    131E         320020                BRA Z, 0x1360     
    2449    1320         806060                MOV 0xC0C, W0     
    2450    1322         600062                AND W0, #0x2, W0  
    2451    1324         E00000                CP0 W0            
    2452    1326         3A000E                BRA NZ, 0x1344    
    2453    1328         BFC223                MOV.B 0x223, WREG 
    2454    132A         604061                AND.B W0, #0x1, W0
    2455    132C         E00400                CP0.B W0          
    2456    132E         32FFFC                BRA Z, 0x1328     
    2457    1330         805FF1                MOV 0xBFE, W1     
    2458    1332         201000                MOV #0x100, W0    
    2459    1334         500081                SUB W0, W1, W1    
    2460    1336         200FF0                MOV #0xFF, W0     
    2461    1338         608000                AND W1, W0, W0    
    2462    133A         881120                MOV W0, U1TXREG   
    2463    133C         805FB0                MOV 0xBF6, W0     
    2464    133E         E80000                INC W0, W0        
    2465    1340         885FB0                MOV W0, 0xBF6     
    2466    1342         370080                BRA 0x1444        
    2467    1344         806060                MOV 0xC0C, W0     
    2468    1346         600062                AND W0, #0x2, W0  
    2469    1348         E00000                CP0 W0            
    2470    134A         32007C                BRA Z, 0x1444     
    2471    134C         BFC223                MOV.B 0x223, WREG 
    2472    134E         604061                AND.B W0, #0x1, W0
    2473    1350         E00400                CP0.B W0          
    2474    1352         32FFFC                BRA Z, 0x134C     
    2475    1354         805FE0                MOV 0xBFC, W0     
    2476    1356         881120                MOV W0, U1TXREG   
    2477    1358         805FB0                MOV 0xBF6, W0     
    2478    135A         E80000                INC W0, W0        
    2479    135C         885FB0                MOV W0, 0xBF6     
    2480    135E         370072                BRA 0x1444        
    2481    1360         200010                MOV #0x1, W0      
    2482    1362         885FB0                MOV W0, 0xBF6     
    2483    1364         37006F                BRA 0x1444        
    2484    1366         806060                MOV 0xC0C, W0     
    2485    1368         600061                AND W0, #0x1, W0  
    2486    136A         E00000                CP0 W0            
    2487    136C         320004                BRA Z, 0x1376     
    2488    136E         200010                MOV #0x1, W0      
    2489    1370         885FB0                MOV W0, 0xBF6     
    2490    1372         A90C0C                BCLR 0xC0C, #0    
    2491    1374         370067                BRA 0x1444        
    2492    1376         200010                MOV #0x1, W0      
    2493    1378         885FB0                MOV W0, 0xBF6     
    2494    137A         370064                BRA 0x1444        
    2495    137C         200010                MOV #0x1, W0      
    2496    137E         885FB0                MOV W0, 0xBF6     
    2497    1380         370061                BRA 0x1444        
    2498    1382         806390                MOV 0xC72, W0     
    2499    1384         500FE4                SUB W0, #0x4, [W15]
    2500    1386         36005E                BRA LEU, 0x1444   
    2501    1388         806020                MOV 0xC04, W0     
    2502    138A         780F00                MOV W0, [W14]     
    2503    138C         78001E                MOV [W14], W0     
    2504    138E         500FE2                SUB W0, #0x2, [W15]
    2505    1390         320026                BRA Z, 0x13DE     
    2506    1392         78001E                MOV [W14], W0     
    2507    1394         500FE2                SUB W0, #0x2, [W15]
    2508    1396         3E0004                BRA GTU, 0x13A0   
    2509    1398         78001E                MOV [W14], W0     
    2510    139A         500FE1                SUB W0, #0x1, [W15]
    2511    139C         320008                BRA Z, 0x13AE     
    2512    139E         370050                BRA 0x1440        
    2513    13A0         78001E                MOV [W14], W0     
    2514    13A2         500FE3                SUB W0, #0x3, [W15]
    2515    13A4         320029                BRA Z, 0x13F8     
    2516    13A6         78001E                MOV [W14], W0     
    2517    13A8         500FE4                SUB W0, #0x4, [W15]
    2518    13AA         320032                BRA Z, 0x1410     
    2519    13AC         370049                BRA 0x1440        
    2520    13AE         805FC1                MOV 0xBF8, W1     
    2521    13B0         200EA0                MOV #0xEA, W0     
    2522    13B2         508F80                SUB W1, W0, [W15] 
    2523    13B4         320007                BRA Z, 0x13C4     
    2524    13B6         BFC223                MOV.B 0x223, WREG 
    2525    13B8         604061                AND.B W0, #0x1, W0
    2526    13BA         E00400                CP0.B W0          
    2527    13BC         32FFFC                BRA Z, 0x13B6     
    2528    13BE         200EA0                MOV #0xEA, W0     
    2529    13C0         881120                MOV W0, U1TXREG   
    2530    13C2         37000A                BRA 0x13D8        
    2531    13C4         BFC223                MOV.B 0x223, WREG 
    2532    13C6         604061                AND.B W0, #0x1, W0
    2533    13C8         E00400                CP0.B W0          
    2534    13CA         32FFFC                BRA Z, 0x13C4     
    2535    13CC         BFCC07                MOV.B 0xC07, WREG 
    2536    13CE         FB8000                ZE W0, W0         
    2537    13D0         881120                MOV W0, U1TXREG   
    2538    13D2         806020                MOV 0xC04, W0     
    2539    13D4         E80000                INC W0, W0        
    2540    13D6         886020                MOV W0, 0xC04     
    2541    13D8         EB0000                CLR W0            
    2542    13DA         886390                MOV W0, 0xC72     
    2543    13DC         370033                BRA 0x1444        
    2544    13DE         BFC223                MOV.B 0x223, WREG 
    2545    13E0         604061                AND.B W0, #0x1, W0
    2546    13E2         E00400                CP0.B W0          
    2547    13E4         32FFFC                BRA Z, 0x13DE     
    2548    13E6         BFCC06                MOV.B 0xC06, WREG 
    2549    13E8         FB8000                ZE W0, W0         
    2550    13EA         881120                MOV W0, U1TXREG   
    2551    13EC         806020                MOV 0xC04, W0     
    2552    13EE         E80000                INC W0, W0        
    2553    13F0         886020                MOV W0, 0xC04     
    2554    13F2         EB0000                CLR W0            
    2555    13F4         886390                MOV W0, 0xC72     
    2556    13F6         370026                BRA 0x1444        
    2557    13F8         BFC223                MOV.B 0x223, WREG 
    2558    13FA         604061                AND.B W0, #0x1, W0
    2559    13FC         E00400                CP0.B W0          
    2560    13FE         32FFFC                BRA Z, 0x13F8     
    2561    1400         806040                MOV 0xC08, W0     
    2562    1402         881120                MOV W0, U1TXREG   
    2563    1404         806020                MOV 0xC04, W0     
    2564    1406         E80000                INC W0, W0        
    2565    1408         886020                MOV W0, 0xC04     
    2566    140A         EB0000                CLR W0            
    2567    140C         886390                MOV W0, 0xC72     
    2568    140E         37001A                BRA 0x1444        
    2569    1410         805FC0                MOV 0xBF8, W0     
    2570    1412         500FF8                SUB W0, #0x18, [W15]
    2571    1414         3A0007                BRA NZ, 0x1424    
    2572    1416         200010                MOV #0x1, W0      
    2573    1418         886020                MOV W0, 0xC04     
    2574    141A         A98BC8                BCLR 0xBC8, #4    
    2575    141C         A86C0C                BSET 0xC0C, #3    
    2576    141E         A98C0C                BCLR 0xC0C, #4    
    2577    1420         A94C0C                BCLR 0xC0C, #2    
    2578    1422         370010                BRA 0x1444        
    2579    1424         200010                MOV #0x1, W0      
    2580    1426         886020                MOV W0, 0xC04     
    2581    1428         BFC223                MOV.B 0x223, WREG 
    2582    142A         604061                AND.B W0, #0x1, W0
    2583    142C         E00400                CP0.B W0          
    2584    142E         32FFFC                BRA Z, 0x1428     
    2585    1430         200EA0                MOV #0xEA, W0     
    2586    1432         881120                MOV W0, U1TXREG   
    2587    1434         A88BC8                BSET 0xBC8, #4    
    2588    1436         A86C0C                BSET 0xC0C, #3    
    2589    1438         A88C0C                BSET 0xC0C, #4    
    2590    143A         EB0000                CLR W0            
    2591    143C         886390                MOV W0, 0xC72     
    2592    143E         370002                BRA 0x1444        
    2593    1440         200010                MOV #0x1, W0      
    2594    1442         886020                MOV W0, 0xC04     
    2595    1444         A96085                BCLR 0x85, #3     
    2596    1446         FA8000                ULNK              
    2597    1448         BE034F                MOV.D [--W15], W6 
    2598    144A         BE024F                MOV.D [--W15], W4 
    2599    144C         BE014F                MOV.D [--W15], W2 
    2600    144E         BE004F                MOV.D [--W15], W0 
    2601    1450         F90036                POP RCOUNT        
    2602    1452         064000                RETFIE            
    2603    1454         FA0000                LNK #0x0          
    2604    1456         206A41                MOV #0x6A4, W1    
    2605    1458         784091                MOV.B [W1], W1    
    2606    145A         B3CC00                MOV.B #0xC0, W0   
    2607    145C         60C000                AND.B W1, W0, W0  
    2608    145E         B340F0                IOR.B #0xF, W0    
    2609    1460         B7E6A4                MOV.B WREG, RPINR18
    2610    1462         206DD1                MOV #0x6DD, W1    
    2611    1464         784091                MOV.B [W1], W1    
    2612    1466         B3CC00                MOV.B #0xC0, W0   
    2613    1468         60C000                AND.B W1, W0, W0  
    2614    146A         B34030                IOR.B #0x3, W0    
    2615    146C         B7E6DD                MOV.B WREG, 0x6DD 
    2616    146E         A96220                BCLR U1MODE, #3   
    2617    1470         A9A222                BCLR U1STA, #5    
    2618    1472         2001A0                MOV #0x1A, W0     
    2619    1474         881140                MOV W0, U1BRG     
    2620    1476         A96085                BCLR 0x85, #3     
    2621    1478         200A91                MOV #0xA9, W1     
    2622    147A         784091                MOV.B [W1], W1    
    2623    147C         B3C8F0                MOV.B #0x8F, W0   
    2624    147E         60C000                AND.B W1, W0, W0  
    2625    1480         B3C401                MOV.B #0x40, W1   
    2626    1482         704001                IOR.B W0, W1, W0  
    2627    1484         B7E0A9                MOV.B WREG, 0xA9  
    2628    1486         A86095                BSET 0x95, #3     
    2629    1488         A8E221                BSET 0x221, #7    
    2630    148A         A84223                BSET 0x223, #2    
    2631    148C         200010                MOV #0x1, W0      
    2632    148E         885FB0                MOV W0, 0xBF6     
    2633    1490         A98C0C                BCLR 0xC0C, #4    
    2634    1492         A96C0C                BCLR 0xC0C, #3    
    2635    1494         2001E0                MOV #0x1E, W0     
    2636    1496         885F90                MOV W0, 0xBF2     
    2637    1498         A90BC8                BCLR 0xBC8, #0    
    2638    149A         A9ABC8                BCLR 0xBC8, #5    
    2639    149C         A92BC8                BCLR 0xBC8, #1    
    2640    149E         A90BC9                BCLR 0xBC9, #0    
    2641    14A0         A94BC8                BCLR 0xBC8, #2    
    2642    14A2         A86BC8                BSET 0xBC8, #3    
    2643    14A4         A8EBC8                BSET 0xBC8, #7    
    2644    14A6         A88BC8                BSET 0xBC8, #4    
    2645    14A8         200800                MOV #0x80, W0     
    2646    14AA         885FA0                MOV W0, 0xBF4     
    2647    14AC         A80BE8                BSET 0xBE8, #0    
    2648    14AE         A92BE8                BCLR 0xBE8, #1    
    2649    14B0         A9CBE8                BCLR 0xBE8, #6    
    2650    14B2         A84BE8                BSET 0xBE8, #2    
    2651    14B4         A88BE8                BSET 0xBE8, #4    
    2652    14B6         A96BE8                BCLR 0xBE8, #3    
    2653    14B8         200030                MOV #0x3, W0      
    2654    14BA         07043C                RCALL 0x1D34      
    2655    14BC         FA8000                ULNK              
    2656    14BE         060000                RETURN            
    2657    14C0         781F80                MOV W0, [W15++]   
    2658    14C2         781F81                MOV W1, [W15++]   
    2659    14C4         781F82                MOV W2, [W15++]   
    2660    14C6         781F83                MOV W3, [W15++]   
    2661    14C8         781F84                MOV W4, [W15++]   
    2662    14CA         781F85                MOV W5, [W15++]   
    2663    14CC         200144                MOV #0x14, W4     
    2664    14CE         806395                MOV 0xC72, W5     
    2665    14D0         E62804                CPSGT.W W5, W4    
    2666    14D2         EC2C72                INC 0xC72         
    2667    14D4         801904                MOV ADCBUF0, W4   
    2668    14D6         801915                MOV ADCBUF1, W5   
    2669    14D8         528084                SUB W5, W4, W1    
    2670    14DA         3D0001                BRA GE, 0x14DE    
    2671    14DC         520085                SUB W4, W5, W1    
    2672    14DE         200004                MOV #0x0, W4      
    2673    14E0         805955                MOV 0xB2A, W5     
    2674    14E2         885965                MOV W5, 0xB2C     
    2675    14E4         805945                MOV 0xB28, W5     
    2676    14E6         885955                MOV W5, 0xB2A     
    2677    14E8         805935                MOV 0xB26, W5     
    2678    14EA         885945                MOV W5, 0xB28     
    2679    14EC         805925                MOV 0xB24, W5     
    2680    14EE         885935                MOV W5, 0xB26     
    2681    14F0         805915                MOV 0xB22, W5     
    2682    14F2         885925                MOV W5, 0xB24     
    2683    14F4         805905                MOV 0xB20, W5     
    2684    14F6         885915                MOV W5, 0xB22     
    2685    14F8         420205                ADD W4, W5, W4    
    2686    14FA         8058F5                MOV 0xB1E, W5     
    2687    14FC         885905                MOV W5, 0xB20     
    2688    14FE         420205                ADD W4, W5, W4    
    2689    1500         8058E5                MOV 0xB1C, W5     
    2690    1502         8858F5                MOV W5, 0xB1E     
    2691    1504         420205                ADD W4, W5, W4    
    2692    1506         8058D5                MOV 0xB1A, W5     
    2693    1508         8858E5                MOV W5, 0xB1C     
    2694    150A         420205                ADD W4, W5, W4    
    2695    150C         8058C5                MOV 0xB18, W5     
    2696    150E         8858D5                MOV W5, 0xB1A     
    2697    1510         420205                ADD W4, W5, W4    
    2698    1512         8058B5                MOV 0xB16, W5     
    2699    1514         8858C5                MOV W5, 0xB18     
    2700    1516         420205                ADD W4, W5, W4    
    2701    1518         8058A5                MOV 0xB14, W5     
    2702    151A         8858B5                MOV W5, 0xB16     
    2703    151C         420205                ADD W4, W5, W4    
    2704    151E         8858A1                MOV W1, 0xB14     
    2705    1520         420201                ADD W4, W1, W4    
    2706    1522         DEA243                ASR W4, #3, W4    
    2707    1524         885974                MOV W4, 0xB2E     
    2708    1526         EC2B30                INC 0xB30         
    2709    1528         EC2B32                INC 0xB32         
    2710    152A         805A70                MOV 0xB4E, W0     
    2711    152C         E62000                CPSGT.W W4, W0    
    2712    152E         370003                BRA 0x1536        
    2713    1530         885A74                MOV W4, 0xB4E     
    2714    1532         A8AC76                BSET 0xC76, #5    
    2715    1534         370001                BRA 0x1538        
    2716    1536         A9AC76                BCLR 0xC76, #5    
    2717    1538         805925                MOV 0xB24, W5     
    2718    153A         200114                MOV #0x11, W4     
    2719    153C         E6A804                CPSLT.W W5, W4    
    2720    153E         37000C                BRA 0x1558        
    2721    1540         805915                MOV 0xB22, W5     
    2722    1542         E6A804                CPSLT.W W5, W4    
    2723    1544         370009                BRA 0x1558        
    2724    1546         8058B5                MOV 0xB16, W5     
    2725    1548         E62804                CPSGT.W W5, W4    
    2726    154A         370006                BRA 0x1558        
    2727    154C         8058A5                MOV 0xB14, W5     
    2728    154E         E62804                CPSGT.W W5, W4    
    2729    1550         370003                BRA 0x1558        
    2730    1552         A80B3E                BSET 0xB3E, #0    
    2731    1554         EF2B42                CLR 0xB42         
    2732    1556         EF2B30                CLR 0xB30         
    2733    1558         A90306                BCLR ADSTAT, #0   
    2734    155A         A9C091                BCLR 0x91, #6     
    2735    155C         7802CF                MOV [--W15], W5   
    2736    155E         78024F                MOV [--W15], W4   
    2737    1560         7801CF                MOV [--W15], W3   
    2738    1562         78014F                MOV [--W15], W2   
    2739    1564         7800CF                MOV [--W15], W1   
    2740    1566         78004F                MOV [--W15], W0   
    2741    1568         064000                RETFIE            
    2742    156A         781F80                MOV W0, [W15++]   
    2743    156C         781F81                MOV W1, [W15++]   
    2744    156E         781F82                MOV W2, [W15++]   
    2745    1570         781F83                MOV W3, [W15++]   
    2746    1572         781F84                MOV W4, [W15++]   
    2747    1574         781F85                MOV W5, [W15++]   
    2748    1576         781F88                MOV W8, [W15++]   
    2749    1578         781F8A                MOV W10, [W15++]  
    2750    157A         F80044                PUSH CORCON       
    2751    157C         A80044                BSET CORCON, #0   
    2752    157E         AE82CA                BTSS PORTB, #4    
    2753    1580         370008                BRA 0x1592        
    2754    1582         200641                MOV #0x64, W1     
    2755    1584         805B14                MOV 0xB62, W4     
    2756    1586         E62001                CPSGT.W W4, W1    
    2757    1588         EC2B62                INC 0xB62         
    2758    158A         200031                MOV #0x3, W1      
    2759    158C         E6A001                CPSLT.W W4, W1    
    2760    158E         A80C76                BSET 0xC76, #0    
    2761    1590         370001                BRA 0x1594        
    2762    1592         EF2B62                CLR 0xB62         
    2763    1594         AF4C76                BTSC 0xC76, #2    
    2764    1596         A8E423                BSET 0x423, #7    
    2765    1598         805B51                MOV 0xB6A, W1     
    2766    159A         801934                MOV ADCBUF3, W4   
    2767    159C         886274                MOV W4, 0xC4E     
    2768    159E         801924                MOV ADCBUF2, W4   
    2769    15A0         8859C4                MOV W4, 0xB38     
    2770    15A2         805B65                MOV 0xB6C, W5     
    2771    15A4         408285                ADD W1, W5, W5    
    2772    15A6         805B74                MOV 0xB6E, W4     
    2773    15A8         528284                SUB W5, W4, W5    
    2774    15AA         885B65                MOV W5, 0xB6C     
    2775    15AC         DEAAC2                ASR W5, #2, W5    
    2776    15AE         885B75                MOV W5, 0xB6E     
    2777    15B0         203B64                MOV #0x3B6, W4    
    2778    15B2         E6A804                CPSLT.W W5, W4    
    2779    15B4         A80C76                BSET 0xC76, #0    
    2780    15B6         AE0C76                BTSS 0xC76, #0    
    2781    15B8         0415C2                GOTO 0x15C2       
    2782    15BA         000000                NOP               
    2783    15BC         EF2426                CLR PDC1          
    2784    15BE         0417B2                GOTO 0x17B2       
    2785    15C0         000000                NOP               
    2786    15C2         805BF4                MOV 0xB7E, W4     
    2787    15C4         508204                SUB W1, W4, W4    
    2788    15C6         340006                BRA LE, 0x15D4    
    2789    15C8         200965                MOV #0x96, W5     
    2790    15CA         C00113                MPY W4*W5, A      
    2791    15CC         800118                MOV ACCA, W8      
    2792    15CE         DD4542                SL W8, #2, W10    
    2793    15D0         0415D8                GOTO 0x15D8       
    2794    15D2         000000                NOP               
    2795    15D4         200008                MOV #0x0, W8      
    2796    15D6         780508                MOV W8, W10       
    2797    15D8         806275                MOV 0xC4E, W5     
    2798    15DA         201E04                MOV #0x1E0, W4    
    2799    15DC         528204                SUB W5, W4, W4    
    2800    15DE         340005                BRA LE, 0x15EA    
    2801    15E0         2000C5                MOV #0xC, W5      
    2802    15E2         C00113                MPY W4*W5, A      
    2803    15E4         800115                MOV ACCA, W5      
    2804    15E6         0415EC                GOTO 0x15EC       
    2805    15E8         000000                NOP               
    2806    15EA         200005                MOV #0x0, W5      
    2807    15EC         428408                ADD W5, W8, W8    
    2808    15EE         ED2B74                DEC 0xB74         
    2809    15F0         3A0038                BRA NZ, 0x1662    
    2810    15F2         200644                MOV #0x64, W4     
    2811    15F4         A90B78                BCLR 0xB78, #0    
    2812    15F6         AF8C76                BTSC 0xC76, #4    
    2813    15F8         370008                BRA 0x160A        
    2814    15FA         805BD2                MOV 0xB7A, W2     
    2815    15FC         E60802                CPSGT.W W1, W2    
    2816    15FE         370003                BRA 0x1606        
    2817    1600         201F44                MOV #0x1F4, W4    
    2818    1602         A90B78                BCLR 0xB78, #0    
    2819    1604         370002                BRA 0x160A        
    2820    1606         A80B78                BSET 0xB78, #0    
    2821    1608         200034                MOV #0x3, W4      
    2822    160A         885BA4                MOV W4, 0xB74     
    2823    160C         20C280                MOV #0xC28, W0    
    2824    160E         DD08C5                SL W1, #5, W1     
    2825    1610         AF8C76                BTSC 0xC76, #4    
    2826    1612         370019                BRA 0x1646        
    2827    1614         900140                MOV [W0+8], W2    
    2828    1616         508182                SUB W1, W2, W3    
    2829    1618         3D000B                BRA GE, 0x1630    
    2830    161A         510181                SUB W2, W1, W3    
    2831    161C         DD1A41                SL W3, #1, W4     
    2832    161E         E60804                CPSGT.W W1, W4    
    2833    1620         370012                BRA 0x1646        
    2834    1622         207084                MOV #0x708, W4    
    2835    1624         E69804                CPSLT.W W3, W4    
    2836    1626         508083                SUB W1, W3, W1    
    2837    1628         205784                MOV #0x578, W4    
    2838    162A         E69804                CPSLT.W W3, W4    
    2839    162C         508083                SUB W1, W3, W1    
    2840    162E         37000B                BRA 0x1646        
    2841    1630         27FFF4                MOV #0x7FFF, W4   
    2842    1632         520201                SUB W4, W1, W4    
    2843    1634         DD1AC1                SL W3, #1, W5     
    2844    1636         E62005                CPSGT.W W4, W5    
    2845    1638         370006                BRA 0x1646        
    2846    163A         207084                MOV #0x708, W4    
    2847    163C         E69804                CPSLT.W W3, W4    
    2848    163E         408083                ADD W1, W3, W1    
    2849    1640         205784                MOV #0x578, W4    
    2850    1642         E69804                CPSLT.W W3, W4    
    2851    1644         408083                ADD W1, W3, W1    
    2852    1646         980031                MOV W1, [W0+6]    
    2853    1648         A88044                BSET CORCON, #4   
    2854    164A         0204A6                CALL 0x4A6        
    2855    164C         000000                NOP               
    2856    164E         9000A0                MOV [W0+4], W1    
    2857    1650         200002                MOV #0x0, W2      
    2858    1652         E60802                CPSGT.W W1, W2    
    2859    1654         980022                MOV W2, [W0+4]    
    2860    1656         9000A0                MOV [W0+4], W1    
    2861    1658         E6080A                CPSGT.W W1, W10   
    2862    165A         780501                MOV W1, W10       
    2863    165C         50808A                SUB W1, W10, W1   
    2864    165E         980021                MOV W1, [W0+4]    
    2865    1660         884091                MOV W1, 0x812     
    2866    1662         AE4B3A                BTSS 0xB3A, #2    
    2867    1664         370008                BRA 0x1676        
    2868    1666         EC2B7C                INC 0xB7C         
    2869    1668         805BE4                MOV 0xB7C, W4     
    2870    166A         200025                MOV #0x2, W5      
    2871    166C         AE0B3B                BTSS 0xB3B, #0    
    2872    166E         200015                MOV #0x1, W5      
    2873    1670         E62005                CPSGT.W W4, W5    
    2874    1672         37009F                BRA 0x17B2        
    2875    1674         EF2B7C                CLR 0xB7C         
    2876    1676         F80044                PUSH CORCON       
    2877    1678         A88045                BSET 0x45, #4     
    2878    167A         A80044                BSET CORCON, #0   
    2879    167C         804095                MOV 0x812, W5     
    2880    167E         8058A4                MOV 0xB14, W4     
    2881    1680         AF0B3A                BTSC 0xB3A, #0    
    2882    1682         805964                MOV 0xB2C, W4     
    2883    1684         805AB2                MOV 0xB56, W2     
    2884    1686         E6A002                CPSLT.W W4, W2    
    2885    1688         780202                MOV W2, W4        
    2886    168A         C00113                MPY W4*W5, A      
    2887    168C         C8007C                SFTAC A, #-4      
    2888    168E         800121                MOV ACCAH, W1     
    2889    1690         800110                MOV ACCA, W0      
    2890    1692         805AA4                MOV 0xB54, W4     
    2891    1694         201D62                MOV #0x1D6, W2    
    2892    1696         8058A5                MOV 0xB14, W5     
    2893    1698         E62802                CPSGT.W W5, W2    
    2894    169A         201002                MOV #0x100, W2    
    2895    169C         E62002                CPSGT.W W4, W2    
    2896    169E         780202                MOV W2, W4        
    2897    16A0         780104                MOV W4, W2        
    2898    16A2         780284                MOV W4, W5        
    2899    16A4         C00113                MPY W4*W5, A      
    2900    16A6         C80044                SFTAC A, #4       
    2901    16A8         800114                MOV ACCA, W4      
    2902    16AA         090011                REPEAT #0x11      
    2903    16AC         D88844                DIV.UD W0, W4     
    2904    16AE         780280                MOV W0, W5        
    2905    16B0         201634                MOV #0x163, W4    
    2906    16B2         AECC76                BTSS 0xC76, #6    
    2907    16B4         200DC4                MOV #0xDC, W4     
    2908    16B6         C00113                MPY W4*W5, A      
    2909    16B8         800121                MOV ACCAH, W1     
    2910    16BA         800110                MOV ACCA, W0      
    2911    16BC         201904                MOV #0x190, W4    
    2912    16BE         E61004                CPSGT.W W2, W4    
    2913    16C0         780104                MOV W4, W2        
    2914    16C2         201F44                MOV #0x1F4, W4    
    2915    16C4         E69004                CPSLT.W W2, W4    
    2916    16C6         780104                MOV W4, W2        
    2917    16C8         090011                REPEAT #0x11      
    2918    16CA         D88842                DIV.UD W0, W2     
    2919    16CC         780180                MOV W0, W3        
    2920    16CE         201E00                MOV #0x1E0, W0    
    2921    16D0         DD0045                SL W0, #5, W0     
    2922    16D2         E69800                CPSLT.W W3, W0    
    2923    16D4         780180                MOV W0, W3        
    2924    16D6         806274                MOV 0xC4E, W4     
    2925    16D8         AFAC76                BTSC 0xC76, #5    
    2926    16DA         885AC4                MOV W4, 0xB58     
    2927    16DC         AEEB3A                BTSS 0xB3A, #7    
    2928    16DE         370009                BRA 0x16F2        
    2929    16E0         AF0B3A                BTSC 0xB3A, #0    
    2930    16E2         370007                BRA 0x16F2        
    2931    16E4         8059C4                MOV 0xB38, W4     
    2932    16E6         DD2042                SL W4, #2, W0     
    2933    16E8         DD2241                SL W4, #1, W4     
    2934    16EA         AFAB3A                BTSC 0xB3A, #5    
    2935    16EC         200004                MOV #0x0, W4      
    2936    16EE         420200                ADD W4, W0, W4    
    2937    16F0         370002                BRA 0x16F6        
    2938    16F2         806274                MOV 0xC4E, W4     
    2939    16F4         DD2245                SL W4, #5, W4     
    2940    16F6         20C320                MOV #0xC32, W0    
    2941    16F8         980034                MOV W4, [W0+6]    
    2942    16FA         980043                MOV W3, [W0+8]    
    2943    16FC         F90044                POP CORCON        
    2944    16FE         A88044                BSET CORCON, #4   
    2945    1700         0204A6                CALL 0x4A6        
    2946    1702         000000                NOP               
    2947    1704         AE4B3A                BTSS 0xB3A, #2    
    2948    1706         0204A6                CALL 0x4A6        
    2949    1708         000000                NOP               
    2950    170A         AE2B3A                BTSS 0xB3A, #1    
    2951    170C         0204A6                CALL 0x4A6        
    2952    170E         000000                NOP               
    2953    1710         9000A0                MOV [W0+4], W1    
    2954    1712         E60808                CPSGT.W W1, W8    
    2955    1714         780088                MOV W8, W1        
    2956    1716         508088                SUB W1, W8, W1    
    2957    1718         980021                MOV W1, [W0+4]    
    2958    171A         200002                MOV #0x0, W2      
    2959    171C         E60802                CPSGT.W W1, W2    
    2960    171E         980022                MOV W2, [W0+4]    
    2961    1720         9000A0                MOV [W0+4], W1    
    2962    1722         AEEB3A                BTSS 0xB3A, #7    
    2963    1724         370022                BRA 0x176A        
    2964    1726         AF0B3A                BTSC 0xB3A, #0    
    2965    1728         370017                BRA 0x1758        
    2966    172A         805833                MOV 0xB06, W3     
    2967    172C         DD19C1                SL W3, #1, W3     
    2968    172E         AE6B3A                BTSS 0xB3A, #3    
    2969    1730         37001C                BRA 0x176A        
    2970    1732         805845                MOV 0xB08, W5     
    2971    1734         418285                ADD W3, W5, W5    
    2972    1736         805854                MOV 0xB0A, W4     
    2973    1738         528284                SUB W5, W4, W5    
    2974    173A         885845                MOV W5, 0xB08     
    2975    173C         DEAAC3                ASR W5, #3, W5    
    2976    173E         885855                MOV W5, 0xB0A     
    2977    1740         780185                MOV W5, W3        
    2978    1742         805865                MOV 0xB0C, W5     
    2979    1744         418285                ADD W3, W5, W5    
    2980    1746         805874                MOV 0xB0E, W4     
    2981    1748         528284                SUB W5, W4, W5    
    2982    174A         885865                MOV W5, 0xB0C     
    2983    174C         DEAAC3                ASR W5, #3, W5    
    2984    174E         885875                MOV W5, 0xB0E     
    2985    1750         E6A801                CPSLT.W W5, W1    
    2986    1752         780085                MOV W5, W1        
    2987    1754         508085                SUB W1, W5, W1    
    2988    1756         370009                BRA 0x176A        
    2989    1758         AFCB3A                BTSC 0xB3A, #6    
    2990    175A         370007                BRA 0x176A        
    2991    175C         805975                MOV 0xB2E, W5     
    2992    175E         DD2AC2                SL W5, #2, W5     
    2993    1760         DD29C1                SL W5, #1, W3     
    2994    1762         418285                ADD W3, W5, W5    
    2995    1764         E6A801                CPSLT.W W5, W1    
    2996    1766         780085                MOV W5, W1        
    2997    1768         508085                SUB W1, W5, W1    
    2998    176A         805894                MOV 0xB12, W4     
    2999    176C         780281                MOV W1, W5        
    3000    176E         C00113                MPY W4*W5, A      
    3001    1770         C8004E                SFTAC A, #14      
    3002    1772         800111                MOV ACCA, W1      
    3003    1774         203DA5                MOV #0x3DA, W5    
    3004    1776         C00113                MPY W4*W5, A      
    3005    1778         C80049                SFTAC A, #9       
    3006    177A         800113                MOV ACCA, W3      
    3007    177C         AECC76                BTSS 0xC76, #6    
    3008    177E         37000A                BRA 0x1794        
    3009    1780         805B92                MOV 0xB72, W2     
    3010    1782         E69003                CPSLT.W W2, W3    
    3011    1784         370002                BRA 0x178A        
    3012    1786         200050                MOV #0x5, W0      
    3013    1788         410100                ADD W2, W0, W2    
    3014    178A         AEEC76                BTSS 0xC76, #7    
    3015    178C         200002                MOV #0x0, W2      
    3016    178E         885B92                MOV W2, 0xB72     
    3017    1790         E61001                CPSGT.W W2, W1    
    3018    1792         780082                MOV W2, W1        
    3019    1794         200020                MOV #0x2, W0      
    3020    1796         E60800                CPSGT.W W1, W0    
    3021    1798         780080                MOV W0, W1        
    3022    179A         780003                MOV W3, W0        
    3023    179C         E68800                CPSLT.W W1, W0    
    3024    179E         780080                MOV W0, W1        
    3025    17A0         DE88C1                ASR W1, #1, W1    
    3026    17A2         882131                MOV W1, PDC1      
    3027    17A4         DE08C1                LSR W1, #1, W1    
    3028    17A6         882191                MOV W1, TRIG1     
    3029    17A8         219D54                MOV #0x19D5, W4   
    3030    17AA         AE8B3A                BTSS 0xB3A, #4    
    3031    17AC         21A634                MOV #0x1A63, W4   
    3032    17AE         885894                MOV W4, 0xB12     
    3033    17B0         882144                MOV W4, PHASE1    
    3034    17B2         A92306                BCLR ADSTAT, #1   
    3035    17B4         A9E091                BCLR 0x91, #7     
    3036    17B6         F90044                POP CORCON        
    3037    17B8         78054F                MOV [--W15], W10  
    3038    17BA         78044F                MOV [--W15], W8   
    3039    17BC         7802CF                MOV [--W15], W5   
    3040    17BE         78024F                MOV [--W15], W4   
    3041    17C0         7801CF                MOV [--W15], W3   
    3042    17C2         78014F                MOV [--W15], W2   
    3043    17C4         7800CF                MOV [--W15], W1   
    3044    17C6         78004F                MOV [--W15], W0   
    3045    17C8         064000                RETFIE            
    3046    17CA         000C64                NOP               
    3047    17CC         00000E                NOP               
    3048    17CE         000002                NOP               
    3049    17D0         010000                CALL W0           
    3050    17D2         000000                NOP               
    3051    17D4         000000                NOP               
    3052    17D6         000C00                NOP               
    3053    17D8         000000                NOP               
    3054    17DA         000812                NOP               
    3055    17DC         0002FE                NOP               
    3056    17DE         000002                NOP               
    3057    17E0         010000                CALL W0           
    3058    17E2         000000                NOP               
    3059    17E4         040002                GOTO 0x2          
    3060    17E6         000600                NOP               
    3061    17E8         0B0009                                  
    3062    17EA         000D00                NOP               
    3063    17EC         11000F                SUBR W2, W15, W0  
    3064    17EE         001300                NOP               
    3065    17F0         180016                SUBBR W0, [W6], W0
    3066    17F2         001A00                NOP               
    3067    17F4         1E001C                SUBBR W12, [W12], W0
    3068    17F6         002000                NOP               
    3069    17F8         250022                MOV #0x5002, W2   
    3070    17FA         002700                NOP               
    3071    17FC         2B0029                MOV #0xB002, W9   
    3072    17FE         002D00                NOP               
    3073    1800         31002F                BRA C, 0x1860     
    3074    1802         003400                NOP               
    3075    1804         380036                BRA NOV, 0x1872   
    3076    1806         003A00                NOP               
    3077    1808         3E003C                BRA GTU, 0x1882   
    3078    180A         004000                NOP               
    3079    180C         440042                ADD W8, [--W2], W0
    3080    180E         004600                NOP               
    3081    1810         4B0049                ADDC W6, [--W9], W0
    3082    1812         004D00                NOP               
    3083    1814         51004F                SUB W2, [--W15], W0
    3084    1816         005300                NOP               
    3085    1818         570055                SUB W14, [++W5], W0
    3086    181A         005900                NOP               
    3087    181C         5D005B                SUBB W10, [++W11], W0
    3088    181E         005F00                NOP               
    3089    1820         630061                AND W6, #0x1, W0  
    3090    1822         006500                NOP               
    3091    1824         690067                XOR W2, #0x7, W0  
    3092    1826         006B00                NOP               
    3093    1828         6F006D                XOR W14, #0xD, W0 
    3094    182A         007100                NOP               
    3095    182C         750073                IOR W10, #0x13, W0
    3096    182E         007700                NOP               
    3097    1830         7A0078                MOV [W8+W4], W0   
    3098    1832         007C00                NOP               
    3099    1834         80007E                MOV WREG7, W14    
    3100    1836         008200                NOP               
    3101    1838         860084                MOV 0xC010, W4    
    3102    183A         008700                NOP               
    3103    183C         8B0089                MOV W9, 0x6010    
    3104    183E         008D00                NOP               
    3105    1840         90008F                MOV [W15+0], W1   
    3106    1842         009200                NOP               
    3107    1844         960094                MOV [W4-510], W1  
    3108    1846         009800                NOP               
    3109    1848         9B0099                MOV W9, [W1+770]  
    3110    184A         009D00                NOP               
    3111    184C         A0009E                BSET [W14], #0    
    3112    184E         00A200                NOP               
    3113    1850         A500A3                BTST.C [W3--], W0 
    3114    1852         00A700                NOP               
    3115    1854         AA00A8                BTG IPC2, #0      
    3116    1856         00AC00                NOP               
    3117    1858         AF00AD                BTSC 0xAD, #0     
    3118    185A         00B000                NOP               
    3119    185C         B300B2                IOR #0xB, W2      
    3120    185E         00B500                NOP               
    3121    1860         B800B7                MUL.UU W0, [W7++], W0
    3122    1862         00BA00                NOP               
    3123    1864         BC00BB                MUL 0xBB          
    3124    1866         00BE00                NOP               
    3125    1868         C100BF                MPY W4*W6, A, [W8]+=4, W4, [W11]-=2, W4
    3126    186A         00C200                NOP               
    3127    186C         C500C4                MAC W5*W7, A, [W8]+=6, W4, [W10]+=2, W4, W13
    3128    186E         00C600                NOP               
    3129    1870         C900C8                ADD [--W8], #1, A 
    3130    1872         00CA00                NOP               
    3131    1874         CD00CC                SAC.R A, #1, [--W12]
    3132    1876         00CE00                NOP               
    3133    1878         D100D0                LSR [++W0], W1    
    3134    187A         00D200                NOP               
    3135    187C         D500D3                LSR 0xD3, WREG    
    3136    187E         00D600                NOP               
    3137    1880         D800D7                DIV.SD W1, W7     
    3138    1882         00D900                NOP               
    3139    1884         DC00DA                                  
    3140    1886         00DD00                NOP               
    3141    1888         DF00DE                FBCL [++W14], W1  
    3142    188A         00E000                NOP               
    3143    188C         E200E1                CP0 0xE1          
    3144    188E         00E300                NOP               
    3145    1890         E500E4                                  
    3146    1892         00E600                NOP               
    3147    1894         E800E7                INC null, W1      
    3148    1896         00E900                NOP               
    3149    1898         EA00EA                NEG null, W1      
    3150    189A         00EB00                NOP               
    3151    189C         ED00EC                DEC 0xEC, WREG    
    3152    189E         00EE00                NOP               
    3153    18A0         EF00EF                CLR WREG          
    3154    18A2         00F000                NOP               
    3155    18A4         F200F1                MPY W6*W6, A, [W8]+=6, W4, [W11+W12], W4
    3156    18A6         00F200                NOP               
    3157    18A8         F400F3                                  
    3158    18AA         00F400                NOP               
    3159    18AC         F600F5                                  
    3160    18AE         00F600                NOP               
    3161    18B0         F700F7                MREAD             
    3162    18B2         00F800                NOP               
    3163    18B4         F900F8                POP 0xF8          
    3164    18B6         00F900                NOP               
    3165    18B8         FA00FA                LNK #0xFA         
    3166    18BA         00FB00                NOP               
    3167    18BC         FC00FB                DISI #0xFB        
    3168    18BE         00FC00                NOP               
    3169    18C0         FD00FC                EXCH null, W1     
    3170    18C2         00FD00                NOP               
    3171    18C4         FE00FD                RESET             
    3172    18C6         00FE00                NOP               
    3173    18C8         FE00FE                RESET             
    3174    18CA         00FF00                NOP               
    3175    18CC         FF00FF                NOPR              
    3176    18CE         00FF00                NOP               
    3177    18D0         0000FF                NOP               
    3178    18D2         010001                CALL W1           
    3179    18D4         000100                NOP               
    3180    18D6         010001                CALL W1           
    3181    18D8         000100                NOP               
    3182    18DA         010001                CALL W1           
    3183    18DC         000100                NOP               
    3184    18DE         010001                CALL W1           
    3185    18E0         000100                NOP               
    3186    18E2         010001                CALL W1           
    3187    18E4         FF0100                NOPR              
    3188    18E6         00FF00                NOP               
    3189    18E8         FF00FF                NOPR              
    3190    18EA         00FF00                NOP               
    3191    18EC         FE00FE                RESET             
    3192    18EE         00FE00                NOP               
    3193    18F0         FD00FE                EXCH null, W1     
    3194    18F2         00FD00                NOP               
    3195    18F4         FC00FD                DISI #0xFD        
    3196    18F6         00FC00                NOP               
    3197    18F8         FB00FC                SE null, W1       
    3198    18FA         00FB00                NOP               
    3199    18FC         FA00FA                LNK #0xFA         
    3200    18FE         00F900                NOP               
    3201    1900         F800F9                PUSH 0xF9         
    3202    1902         00F800                NOP               
    3203    1904         F700F7                MREAD             
    3204    1906         00F600                NOP               
    3205    1908         F500F6                                  
    3206    190A         00F400                NOP               
    3207    190C         F300F4                MAC W7*W7, A, [W8]+=6, W4, [W11]-=6, W4
    3208    190E         00F200                NOP               
    3209    1910         F100F2                EDAC W5*W5, A, [W8]+=6, [W11+W12], W4
    3210    1912         00F000                NOP               
    3211    1914         EF00EF                CLR WREG          
    3212    1916         00EE00                NOP               
    3213    1918         EC00ED                INC 0xED, WREG    
    3214    191A         00EB00                NOP               
    3215    191C         EA00EA                NEG null, W1      
    3216    191E         00E900                NOP               
    3217    1920         E700E8                CPSNE.W W0, null  
    3218    1922         00E600                NOP               
    3219    1924         E400E5                                  
    3220    1926         00E300                NOP               
    3221    1928         E100E2                CP W0, #2         
    3222    192A         00E000                NOP               
    3223    192C         DE00DF                LSR W0, #31, W1   
    3224    192E         00DD00                NOP               
    3225    1930         DA00DC                FEX               
    3226    1932         00D900                NOP               
    3227    1934         D700D8                RRNC IPC26, WREG  
    3228    1936         00D600                NOP               
    3229    1938         D300D5                RRNC [++W5], W1   
    3230    193A         00D200                NOP               
    3231    193C         D000D1                SL [++W1], W1     
    3232    193E         00CE00                NOP               
    3233    1940         CC00CD                SAC A, #1, [--W13]
    3234    1942         00CA00                NOP               
    3235    1944         C800C9                SFTAC A, #9       
    3236    1946         00C600                NOP               
    3237    1948         C400C5                MAC W5*W6, A, [W8]+=6, W4, [W10]+=2, W4, [W13]+=2
    3238    194A         00C200                NOP               
    3239    194C         BF00C1                MOV 0xC1, WREG    
    3240    194E         00BE00                NOP               
    3241    1950         BB00BC                TBLWTL [W12++], W1
    3242    1952         00BA00                NOP               
    3243    1954         B700B8                IOR 0xB8, WREG    
    3244    1956         00B500                NOP               
    3245    1958         B200B3                AND #0xB, W3      
    3246    195A         00B000                NOP               
    3247    195C         AD00AF                BSW.C [W15--], W0 
    3248    195E         00AC00                NOP               
    3249    1960         A800AA                BSET IPC3, #0     
    3250    1962         00A700                NOP               
    3251    1964         A300A5                BTST.C [W5--], #0 
    3252    1966         00A200                NOP               
    3253    1968         9E00A0                MOV W0, [W1-508]  
    3254    196A         009D00                NOP               
    3255    196C         99009B                MOV W11, [W1+258] 
    3256    196E         009800                NOP               
    3257    1970         940096                MOV [W6-1022], W1 
    3258    1972         009200                NOP               
    3259    1974         8F0090                MOV W0, 0xE012    
    3260    1976         008D00                NOP               
    3261    1978         89008B                MOV W11, 0x2010   
    3262    197A         008700                NOP               
    3263    197C         840086                MOV 0x8010, W6    
    3264    197E         008200                NOP               
    3265    1980         7E0080                MOV W0, W1        
    3266    1982         007C00                NOP               
    3267    1984         78007A                MOV [W10+W0], W0  
    3268    1986         007700                NOP               
    3269    1988         730075                IOR W6, #0x15, W0 
    3270    198A         007100                NOP               
    3271    198C         6D006F                XOR W10, #0xF, W0 
    3272    198E         006B00                NOP               
    3273    1990         670069                AND W14, #0x9, W0 
    3274    1992         006500                NOP               
    3275    1994         610063                AND W2, #0x3, W0  
    3276    1996         005F00                NOP               
    3277    1998         5B005D                SUBB W6, [++W13], W0
    3278    199A         005900                NOP               
    3279    199C         550057                SUB W10, [++W7], W0
    3280    199E         005300                NOP               
    3281    19A0         4F0051                ADDC W14, [++W1], W0
    3282    19A2         004D00                NOP               
    3283    19A4         49004B                ADDC W2, [--W11], W0
    3284    19A6         004600                NOP               
    3285    19A8         420044                ADD W4, [--W4], W0
    3286    19AA         004000                NOP               
    3287    19AC         3C003E                BRA GT, 0x1A2A    
    3288    19AE         003A00                NOP               
    3289    19B0         360038                BRA LEU, 0x1A22   
    3290    19B2         003400                NOP               
    3291    19B4         2F0031                MOV #0xF003, W1   
    3292    19B6         002D00                NOP               
    3293    19B8         29002B                MOV #0x9002, W11  
    3294    19BA         002700                NOP               
    3295    19BC         220025                MOV #0x2002, W5   
    3296    19BE         002000                NOP               
    3297    19C0         1C001E                SUBBR W8, [W14], W0
    3298    19C2         001A00                NOP               
    3299    19C4         160018                SUBR W12, [W8], W0
    3300    19C6         001300                NOP               
    3301    19C8         0F0011                BRA SB, 0x19EC    
    3302    19CA         000D00                NOP               
    3303    19CC         09000B                REPEAT #0xB       
    3304    19CE         000600                NOP               
    3305    19D0         020004                CALL 0x4          
    3306    19D2         000000                NOP               
    3307    19D4         000000                NOP               
    3308    19D6         000000                NOP               
    3309    19D8         000000                NOP               
    3310    19DA         000000                NOP               
    3311    19DC         000000                NOP               
    3312    19DE         000000                NOP               
    3313    19E0         000C76                NOP               
    3314    19E2         000002                NOP               
    3315    19E4         000000                NOP               
    3316    19E6         000B10                NOP               
    3317    19E8         000070                NOP               
    3318    19EA         000002                NOP               
    3319    19EC         4D0000                ADDC W10, W0, W0  
    3320    19EE         000019                NOP               
    3321    19F0         000000                NOP               
    3322    19F2         000000                NOP               
    3323    19F4         000000                NOP               
    3324    19F6         000000                NOP               
    3325    19F8         000000                NOP               
    3326    19FA         000000                NOP               
    3327    19FC         000000                NOP               
    3328    19FE         000000                NOP               
    3329    1A00         000000                NOP               
    3330    1A02         000000                NOP               
    3331    1A04         0002BC                NOP               
    3332    1A06         000000                NOP               
    3333    1A08         140001                SUBR W8, W1, W0   
    3334    1A0A         000000                NOP               
    3335    1A0C         000000                NOP               
    3336    1A0E         000000                NOP               
    3337    1A10         010000                CALL W0           
    3338    1A12         00C800                NOP               
    3339    1A14         000000                NOP               
    3340    1A16         000000                NOP               
    3341    1A18         000000                NOP               
    3342    1A1A         000000                NOP               
    3343    1A1C         000000                NOP               
    3344    1A1E         000000                NOP               
    3345    1A20         000000                NOP               
    3346    1A22         000000                NOP               
    3347    1A24         000000                NOP               
    3348    1A26         000000                NOP               
    3349    1A28         000000                NOP               
    3350    1A2A         000000                NOP               
    3351    1A2C         000001                NOP               
    3352    1A2E         000100                NOP               
    3353    1A30         000080                NOP               
    3354    1A32         000000                NOP               
    3355    1A34         910000                MOV [W0+256], W0  
    3356    1A36         000003                NOP               
    3357    1A38         000C0E                NOP               
    3358    1A3A         00002E                NOP               
    3359    1A3C         000000                NOP               
    3360    1A3E         000800                NOP               
    3361    1A40         00000C                NOP               
    3362    1A42         000000                NOP               
    3363    1A44         000FF2                NOP               
    3364    1A46         00000C                NOP               
    3365    1A48         000000                NOP               
    3366    1A4A         000C72                NOP               
    3367    1A4C         000004                NOP               
    3368    1A4E         000002                NOP               
    3369    1A50         000000                NOP               
    3370    1A52         000000                NOP               
    3371    1A54         000BC8                NOP               
    3372    1A56         000046                NOP               
    3373    1A58         000000                NOP               
    3374    1A5A         000B80                NOP               
    3375    1A5C         000048                NOP               
    3376    1A5E         000002                NOP               
    3377    1A60         000000                NOP               
    3378    1A62         000000                NOP               
    3379    1A64         000000                NOP               
    3380    1A66         000000                NOP               
    3381    1A68         000000                NOP               
    3382    1A6A         000000                NOP               
    3383    1A6C         010000                CALL W0           
    3384    1A6E         000000                NOP               
    3385    1A70         000000                NOP               
    3386    1A72         000000                NOP               
    3387    1A74         000000                NOP               
    3388    1A76         000000                NOP               
    3389    1A78         000001                NOP               
    3390    1A7A         000000                NOP               
    3391    1A7C         000000                NOP               
    3392    1A7E         000000                NOP               
    3393    1A80         000001                NOP               
    3394    1A82         000000                NOP               
    3395    1A84         000000                NOP               
    3396    1A86         000000                NOP               
    3397    1A88         000000                NOP               
    3398    1A8A         000000                NOP               
    3399    1A8C         000000                NOP               
    3400    1A8E         000000                NOP               
    3401    1A90         000C3C                NOP               
    3402    1A92         000014                NOP               
    3403    1A94         000002                NOP               
    3404    1A96         000000                NOP               
    3405    1A98         000000                NOP               
    3406    1A9A         000000                NOP               
    3407    1A9C         05DC00                RETLW.B #0x1C0, W0
    3408    1A9E         5E05DC                SUBB W12, [++W12], W11
    3409    1AA0         000001                NOP               
    3410    1AA2         000000                NOP               
    3411    1AA4         000C50                NOP               
    3412    1AA6         000014                NOP               
    3413    1AA8         000000                NOP               
    3414    1AAA         00080C                NOP               
    3415    1AAC         000006                NOP               
    3416    1AAE         000000                NOP               
    3417    1AB0         000FEC                NOP               
    3418    1AB2         000006                NOP               
    3419    1AB4         000000                NOP               
    3420    1AB6         000000                NOP               
    3421    1AB8         FA0002                LNK #0x2          
    3422    1ABA         07034D                RCALL 0x2156      
    3423    1ABC         070391                RCALL 0x21E0      
    3424    1ABE         07039F                RCALL 0x21FE      
    3425    1AC0         07FCC9                RCALL 0x1454      
    3426    1AC2         07F593                RCALL 0x5EA       
    3427    1AC4         0703A3                RCALL 0x220C      
    3428    1AC6         070377                RCALL 0x21B6      
    3429    1AC8         200020                MOV #0x2, W0      
    3430    1ACA         070134                RCALL 0x1D34      
    3431    1ACC         A8E301                BSET 0x301, #7    
    3432    1ACE         200020                MOV #0x2, W0      
    3433    1AD0         070131                RCALL 0x1D34      
    3434    1AD2         A8E401                BSET 0x401, #7    
    3435    1AD4         200010                MOV #0x1, W0      
    3436    1AD6         07012E                RCALL 0x1D34      
    3437    1AD8         370003                BRA 0x1AE0        
    3438    1ADA         07FA9C                RCALL 0x1014      
    3439    1ADC         200020                MOV #0x2, W0      
    3440    1ADE         07012A                RCALL 0x1D34      
    3441    1AE0         806060                MOV 0xC0C, W0     
    3442    1AE2         600068                AND W0, #0x8, W0  
    3443    1AE4         E00000                CP0 W0            
    3444    1AE6         32FFF9                BRA Z, 0x1ADA     
    3445    1AE8         07F760                RCALL 0x9AA       
    3446    1AEA         07F7B9                RCALL 0xA5E       
    3447    1AEC         805E40                MOV 0xBC8, W0     
    3448    1AEE         600070                AND W0, #0x10, W0 
    3449    1AF0         E00000                CP0 W0            
    3450    1AF2         320005                BRA Z, 0x1AFE     
    3451    1AF4         806060                MOV 0xC0C, W0     
    3452    1AF6         600068                AND W0, #0x8, W0  
    3453    1AF8         E00000                CP0 W0            
    3454    1AFA         320001                BRA Z, 0x1AFE     
    3455    1AFC         07FA8B                RCALL 0x1014      
    3456    1AFE         805D80                MOV 0xBB0, W0     
    3457    1B00         805D91                MOV 0xBB2, W1     
    3458    1B02         885F50                MOV W0, 0xBEA     
    3459    1B04         8059B1                MOV 0xB36, W1     
    3460    1B06         805980                MOV 0xB30, W0     
    3461    1B08         B80001                MUL.UU W0, W1, W0 
    3462    1B0A         DD0946                SL W1, #6, W2     
    3463    1B0C         DE004A                LSR W0, #10, W0   
    3464    1B0E         710000                IOR W2, W0, W0    
    3465    1B10         DE08CA                LSR W1, #10, W1   
    3466    1B12         885810                MOV W0, 0xB02     
    3467    1B14         805810                MOV 0xB02, W0     
    3468    1B16         D10000                LSR W0, W0        
    3469    1B18         885800                MOV W0, 0xB00     
    3470    1B1A         805800                MOV 0xB00, W0     
    3471    1B1C         B00640                ADD #0x64, W0     
    3472    1B1E         885800                MOV W0, 0xB00     
    3473    1B20         370004                BRA 0x1B2A        
    3474    1B22         805800                MOV 0xB00, W0     
    3475    1B24         2FE8B1                MOV #0xFE8B, W1   
    3476    1B26         400001                ADD W0, W1, W0    
    3477    1B28         885800                MOV W0, 0xB00     
    3478    1B2A         805801                MOV 0xB00, W1     
    3479    1B2C         201740                MOV #0x174, W0    
    3480    1B2E         508F80                SUB W1, W0, [W15] 
    3481    1B30         3EFFF8                BRA GTU, 0x1B22   
    3482    1B32         805810                MOV 0xB02, W0     
    3483    1B34         B01040                ADD #0x104, W0    
    3484    1B36         885810                MOV W0, 0xB02     
    3485    1B38         370004                BRA 0x1B42        
    3486    1B3A         805810                MOV 0xB02, W0     
    3487    1B3C         2FE8B1                MOV #0xFE8B, W1   
    3488    1B3E         400001                ADD W0, W1, W0    
    3489    1B40         885810                MOV W0, 0xB02     
    3490    1B42         805811                MOV 0xB02, W1     
    3491    1B44         201740                MOV #0x174, W0    
    3492    1B46         508F80                SUB W1, W0, [W15] 
    3493    1B48         3EFFF8                BRA GTU, 0x1B3A   
    3494    1B4A         805800                MOV 0xB00, W0     
    3495    1B4C         400080                ADD W0, W0, W1    
    3496    1B4E         208160                MOV #0x816, W0    
    3497    1B50         408000                ADD W1, W0, W0    
    3498    1B52         780090                MOV [W0], W1      
    3499    1B54         805A90                MOV 0xB52, W0     
    3500    1B56         B80001                MUL.UU W0, W1, W0 
    3501    1B58         DD0949                SL W1, #9, W2     
    3502    1B5A         DE0047                LSR W0, #7, W0    
    3503    1B5C         710000                IOR W2, W0, W0    
    3504    1B5E         DE08C7                LSR W1, #7, W1    
    3505    1B60         885820                MOV W0, 0xB04     
    3506    1B62         805810                MOV 0xB02, W0     
    3507    1B64         400080                ADD W0, W0, W1    
    3508    1B66         208160                MOV #0x816, W0    
    3509    1B68         408000                ADD W1, W0, W0    
    3510    1B6A         780090                MOV [W0], W1      
    3511    1B6C         805A90                MOV 0xB52, W0     
    3512    1B6E         B80001                MUL.UU W0, W1, W0 
    3513    1B70         DD0949                SL W1, #9, W2     
    3514    1B72         DE0047                LSR W0, #7, W0    
    3515    1B74         710000                IOR W2, W0, W0    
    3516    1B76         DE08C7                LSR W1, #7, W1    
    3517    1B78         885830                MOV W0, 0xB06     
    3518    1B7A         8040A0                MOV 0x814, W0     
    3519    1B7C         780F00                MOV W0, [W14]     
    3520    1B7E         78011E                MOV [W14], W2     
    3521    1B80         510FE2                SUB W2, #0x2, [W15]
    3522    1B82         32001F                BRA Z, 0x1BC2     
    3523    1B84         78001E                MOV [W14], W0     
    3524    1B86         500FE2                SUB W0, #0x2, [W15]
    3525    1B88         3E0004                BRA GTU, 0x1B92   
    3526    1B8A         78011E                MOV [W14], W2     
    3527    1B8C         510FE1                SUB W2, #0x1, [W15]
    3528    1B8E         320008                BRA Z, 0x1BA0     
    3529    1B90         3700C8                BRA 0x1D22        
    3530    1B92         78001E                MOV [W14], W0     
    3531    1B94         500FE3                SUB W0, #0x3, [W15]
    3532    1B96         32004B                BRA Z, 0x1C2E     
    3533    1B98         78011E                MOV [W14], W2     
    3534    1B9A         510FE4                SUB W2, #0x4, [W15]
    3535    1B9C         32008A                BRA Z, 0x1CB2     
    3536    1B9E         3700C1                BRA 0x1D22        
    3537    1BA0         806130                MOV 0xC26, W0     
    3538    1BA2         600061                AND W0, #0x1, W0  
    3539    1BA4         E00000                CP0 W0            
    3540    1BA6         320003                BRA Z, 0x1BAE     
    3541    1BA8         200020                MOV #0x2, W0      
    3542    1BAA         8840A0                MOV W0, 0x814     
    3543    1BAC         3700C0                BRA 0x1D2E        
    3544    1BAE         805A20                MOV 0xB44, W0     
    3545    1BB0         500FE9                SUB W0, #0x9, [W15]
    3546    1BB2         3E00BD                BRA GTU, 0x1D2E   
    3547    1BB4         805F40                MOV 0xBE8, W0     
    3548    1BB6         200401                MOV #0x40, W1     
    3549    1BB8         600001                AND W0, W1, W0    
    3550    1BBA         E00000                CP0 W0            
    3551    1BBC         3200B8                BRA Z, 0x1D2E     
    3552    1BBE         A962CC                BCLR LATB, #3     
    3553    1BC0         3700B6                BRA 0x1D2E        
    3554    1BC2         805E40                MOV 0xBC8, W0     
    3555    1BC4         600062                AND W0, #0x2, W0  
    3556    1BC6         E00000                CP0 W0            
    3557    1BC8         3A000E                BRA NZ, 0x1BE6    
    3558    1BCA         806130                MOV 0xC26, W0     
    3559    1BCC         600064                AND W0, #0x4, W0  
    3560    1BCE         E00000                CP0 W0            
    3561    1BD0         320001                BRA Z, 0x1BD4     
    3562    1BD2         07F53B                RCALL 0x64A       
    3563    1BD4         805F40                MOV 0xBE8, W0     
    3564    1BD6         200401                MOV #0x40, W1     
    3565    1BD8         600001                AND W0, W1, W0    
    3566    1BDA         E00000                CP0 W0            
    3567    1BDC         320001                BRA Z, 0x1BE0     
    3568    1BDE         A962CC                BCLR LATB, #3     
    3569    1BE0         200010                MOV #0x1, W0      
    3570    1BE2         8840A0                MOV W0, 0x814     
    3571    1BE4         3700A4                BRA 0x1D2E        
    3572    1BE6         806130                MOV 0xC26, W0     
    3573    1BE8         600064                AND W0, #0x4, W0  
    3574    1BEA         E00000                CP0 W0            
    3575    1BEC         3A000E                BRA NZ, 0x1C0A    
    3576    1BEE         805F40                MOV 0xBE8, W0     
    3577    1BF0         600062                AND W0, #0x2, W0  
    3578    1BF2         E00000                CP0 W0            
    3579    1BF4         3A009C                BRA NZ, 0x1D2E    
    3580    1BF6         805E40                MOV 0xBC8, W0     
    3581    1BF8         600064                AND W0, #0x4, W0  
    3582    1BFA         E00000                CP0 W0            
    3583    1BFC         3A0098                BRA NZ, 0x1D2E    
    3584    1BFE         806130                MOV 0xC26, W0     
    3585    1C00         600061                AND W0, #0x1, W0  
    3586    1C02         E00000                CP0 W0            
    3587    1C04         320094                BRA Z, 0x1D2E     
    3588    1C06         07F4FE                RCALL 0x604       
    3589    1C08         370092                BRA 0x1D2E        
    3590    1C0A         805F40                MOV 0xBE8, W0     
    3591    1C0C         600062                AND W0, #0x2, W0  
    3592    1C0E         E00000                CP0 W0            
    3593    1C10         3A0004                BRA NZ, 0x1C1A    
    3594    1C12         805E40                MOV 0xBC8, W0     
    3595    1C14         600064                AND W0, #0x4, W0  
    3596    1C16         E00000                CP0 W0            
    3597    1C18         320002                BRA Z, 0x1C1E     
    3598    1C1A         07F517                RCALL 0x64A       
    3599    1C1C         370088                BRA 0x1D2E        
    3600    1C1E         07F867                RCALL 0xCEE       
    3601    1C20         805E40                MOV 0xBC8, W0     
    3602    1C22         600061                AND W0, #0x1, W0  
    3603    1C24         E00000                CP0 W0            
    3604    1C26         320083                BRA Z, 0x1D2E     
    3605    1C28         200030                MOV #0x3, W0      
    3606    1C2A         8840A0                MOV W0, 0x814     
    3607    1C2C         370080                BRA 0x1D2E        
    3608    1C2E         805E40                MOV 0xBC8, W0     
    3609    1C30         201001                MOV #0x100, W1    
    3610    1C32         600001                AND W0, W1, W0    
    3611    1C34         E00000                CP0 W0            
    3612    1C36         320004                BRA Z, 0x1C40     
    3613    1C38         805E40                MOV 0xBC8, W0     
    3614    1C3A         600062                AND W0, #0x2, W0  
    3615    1C3C         E00000                CP0 W0            
    3616    1C3E         3A000A                BRA NZ, 0x1C54    
    3617    1C40         805F40                MOV 0xBE8, W0     
    3618    1C42         200401                MOV #0x40, W1     
    3619    1C44         600001                AND W0, W1, W0    
    3620    1C46         E00000                CP0 W0            
    3621    1C48         3A0005                BRA NZ, 0x1C54    
    3622    1C4A         EB0000                CLR W0            
    3623    1C4C         8860B0                MOV W0, 0xC16     
    3624    1C4E         200040                MOV #0x4, W0      
    3625    1C50         8840A0                MOV W0, 0x814     
    3626    1C52         37006D                BRA 0x1D2E        
    3627    1C54         805E40                MOV 0xBC8, W0     
    3628    1C56         600064                AND W0, #0x4, W0  
    3629    1C58         E00000                CP0 W0            
    3630    1C5A         3A0011                BRA NZ, 0x1C7E    
    3631    1C5C         805E40                MOV 0xBC8, W0     
    3632    1C5E         600061                AND W0, #0x1, W0  
    3633    1C60         E00000                CP0 W0            
    3634    1C62         32000D                BRA Z, 0x1C7E     
    3635    1C64         805F40                MOV 0xBE8, W0     
    3636    1C66         600062                AND W0, #0x2, W0  
    3637    1C68         E00000                CP0 W0            
    3638    1C6A         3A0009                BRA NZ, 0x1C7E    
    3639    1C6C         805E40                MOV 0xBC8, W0     
    3640    1C6E         600062                AND W0, #0x2, W0  
    3641    1C70         E00000                CP0 W0            
    3642    1C72         3A000F                BRA NZ, 0x1C92    
    3643    1C74         805F40                MOV 0xBE8, W0     
    3644    1C76         200401                MOV #0x40, W1     
    3645    1C78         600001                AND W0, W1, W0    
    3646    1C7A         E00000                CP0 W0            
    3647    1C7C         32000A                BRA Z, 0x1C92     
    3648    1C7E         07F4E5                RCALL 0x64A       
    3649    1C80         805F40                MOV 0xBE8, W0     
    3650    1C82         200401                MOV #0x40, W1     
    3651    1C84         600001                AND W0, W1, W0    
    3652    1C86         E00000                CP0 W0            
    3653    1C88         320001                BRA Z, 0x1C8C     
    3654    1C8A         A962CC                BCLR LATB, #3     
    3655    1C8C         200020                MOV #0x2, W0      
    3656    1C8E         8840A0                MOV W0, 0x814     
    3657    1C90         37004E                BRA 0x1D2E        
    3658    1C92         07F82D                RCALL 0xCEE       
    3659    1C94         8062C0                MOV 0xC58, W0     
    3660    1C96         600064                AND W0, #0x4, W0  
    3661    1C98         E00000                CP0 W0            
    3662    1C9A         320049                BRA Z, 0x1D2E     
    3663    1C9C         805F40                MOV 0xBE8, W0     
    3664    1C9E         600068                AND W0, #0x8, W0  
    3665    1CA0         E00000                CP0 W0            
    3666    1CA2         3A0045                BRA NZ, 0x1D2E    
    3667    1CA4         805F40                MOV 0xBE8, W0     
    3668    1CA6         200201                MOV #0x20, W1     
    3669    1CA8         600001                AND W0, W1, W0    
    3670    1CAA         E00000                CP0 W0            
    3671    1CAC         3A0040                BRA NZ, 0x1D2E    
    3672    1CAE         A802CD                BSET 0x2CD, #0    
    3673    1CB0         37003E                BRA 0x1D2E        
    3674    1CB2         805E40                MOV 0xBC8, W0     
    3675    1CB4         201001                MOV #0x100, W1    
    3676    1CB6         600001                AND W0, W1, W0    
    3677    1CB8         E00000                CP0 W0            
    3678    1CBA         320007                BRA Z, 0x1CCA     
    3679    1CBC         805E40                MOV 0xBC8, W0     
    3680    1CBE         600062                AND W0, #0x2, W0  
    3681    1CC0         E00000                CP0 W0            
    3682    1CC2         320003                BRA Z, 0x1CCA     
    3683    1CC4         200030                MOV #0x3, W0      
    3684    1CC6         8840A0                MOV W0, 0x814     
    3685    1CC8         370032                BRA 0x1D2E        
    3686    1CCA         805E40                MOV 0xBC8, W0     
    3687    1CCC         600061                AND W0, #0x1, W0  
    3688    1CCE         E00000                CP0 W0            
    3689    1CD0         320004                BRA Z, 0x1CDA     
    3690    1CD2         805F40                MOV 0xBE8, W0     
    3691    1CD4         600062                AND W0, #0x2, W0  
    3692    1CD6         E00000                CP0 W0            
    3693    1CD8         32000A                BRA Z, 0x1CEE     
    3694    1CDA         07F4B7                RCALL 0x64A       
    3695    1CDC         805F40                MOV 0xBE8, W0     
    3696    1CDE         200401                MOV #0x40, W1     
    3697    1CE0         600001                AND W0, W1, W0    
    3698    1CE2         E00000                CP0 W0            
    3699    1CE4         320001                BRA Z, 0x1CE8     
    3700    1CE6         A962CC                BCLR LATB, #3     
    3701    1CE8         200010                MOV #0x1, W0      
    3702    1CEA         8840A0                MOV W0, 0x814     
    3703    1CEC         370020                BRA 0x1D2E        
    3704    1CEE         805E40                MOV 0xBC8, W0     
    3705    1CF0         600064                AND W0, #0x4, W0  
    3706    1CF2         E00000                CP0 W0            
    3707    1CF4         320002                BRA Z, 0x1CFA     
    3708    1CF6         07F4A9                RCALL 0x64A       
    3709    1CF8         37001A                BRA 0x1D2E        
    3710    1CFA         8060C0                MOV 0xC18, W0     
    3711    1CFC         805B71                MOV 0xB6E, W1     
    3712    1CFE         B00961                ADD #0x96, W1     
    3713    1D00         500F81                SUB W0, W1, [W15] 
    3714    1D02         360008                BRA LEU, 0x1D14   
    3715    1D04         8063B0                MOV 0xC76, W0     
    3716    1D06         600062                AND W0, #0x2, W0  
    3717    1D08         E00000                CP0 W0            
    3718    1D0A         320009                BRA Z, 0x1D1E     
    3719    1D0C         805E40                MOV 0xBC8, W0     
    3720    1D0E         600061                AND W0, #0x1, W0  
    3721    1D10         E00000                CP0 W0            
    3722    1D12         320005                BRA Z, 0x1D1E     
    3723    1D14         805F40                MOV 0xBE8, W0     
    3724    1D16         200401                MOV #0x40, W1     
    3725    1D18         600001                AND W0, W1, W0    
    3726    1D1A         E00000                CP0 W0            
    3727    1D1C         320008                BRA Z, 0x1D2E     
    3728    1D1E         A962CC                BCLR LATB, #3     
    3729    1D20         370006                BRA 0x1D2E        
    3730    1D22         200010                MOV #0x1, W0      
    3731    1D24         8840A0                MOV W0, 0x814     
    3732    1D26         A92BC8                BCLR 0xBC8, #1    
    3733    1D28         A90BC8                BCLR 0xBC8, #0    
    3734    1D2A         A9ABC8                BCLR 0xBC8, #5    
    3735    1D2C         A9A2CC                BCLR LATB, #5     
    3736    1D2E         07F6F2                RCALL 0xB14       
    3737    1D30         070115                RCALL 0x1F5C      
    3738    1D32         37FEDA                BRA 0x1AE8        
    3739    1D34         FA0002                LNK #0x2          
    3740    1D36         780F00                MOV W0, [W14]     
    3741    1D38         EB0000                CLR W0            
    3742    1D3A         886380                MOV W0, 0xC70     
    3743    1D3C         EB0000                CLR W0            
    3744    1D3E         886320                MOV W0, 0xC64     
    3745    1D40         806320                MOV 0xC64, W0     
    3746    1D42         500F9E                SUB W0, [W14], [W15]
    3747    1D44         39FFFD                BRA NC, 0x1D40    
    3748    1D46         FA8000                ULNK              
    3749    1D48         060000                RETURN            
    3750    1D4A         BE9F80                MOV.D W0, [W15++] 
    3751    1D4C         FA0000                LNK #0x0          
    3752    1D4E         806130                MOV 0xC26, W0     
    3753    1D50         200201                MOV #0x20, W1     
    3754    1D52         600001                AND W0, W1, W0    
    3755    1D54         E00000                CP0 W0            
    3756    1D56         3A0007                BRA NZ, 0x1D66    
    3757    1D58         200AC0                MOV #0xAC, W0     
    3758    1D5A         886110                MOV W0, 0xC22     
    3759    1D5C         200140                MOV #0x14, W0     
    3760    1D5E         886120                MOV W0, 0xC24     
    3761    1D60         2000B0                MOV #0xB, W0      
    3762    1D62         886370                MOV W0, 0xC6E     
    3763    1D64         37000B                BRA 0x1D7C        
    3764    1D66         806130                MOV 0xC26, W0     
    3765    1D68         200201                MOV #0x20, W1     
    3766    1D6A         600001                AND W0, W1, W0    
    3767    1D6C         E00000                CP0 W0            
    3768    1D6E         320006                BRA Z, 0x1D7C     
    3769    1D70         200BE0                MOV #0xBE, W0     
    3770    1D72         886110                MOV W0, 0xC22     
    3771    1D74         2000F0                MOV #0xF, W0      
    3772    1D76         886120                MOV W0, 0xC24     
    3773    1D78         200210                MOV #0x21, W0     
    3774    1D7A         886370                MOV W0, 0xC6E     
    3775    1D7C         806111                MOV 0xC22, W1     
    3776    1D7E         805970                MOV 0xB2E, W0     
    3777    1D80         508F80                SUB W1, W0, [W15] 
    3778    1D82         36000E                BRA LEU, 0x1DA0   
    3779    1D84         8060F0                MOV 0xC1E, W0     
    3780    1D86         400FE1                ADD W0, #0x1, [W15]
    3781    1D88         320003                BRA Z, 0x1D90     
    3782    1D8A         8060F0                MOV 0xC1E, W0     
    3783    1D8C         E80000                INC W0, W0        
    3784    1D8E         8860F0                MOV W0, 0xC1E     
    3785    1D90         8060F1                MOV 0xC1E, W1     
    3786    1D92         806120                MOV 0xC24, W0     
    3787    1D94         508F80                SUB W1, W0, [W15] 
    3788    1D96         36000F                BRA LEU, 0x1DB6   
    3789    1D98         A84C27                BSET 0xC27, #2    
    3790    1D9A         EB0000                CLR W0            
    3791    1D9C         886100                MOV W0, 0xC20     
    3792    1D9E         37000B                BRA 0x1DB6        
    3793    1DA0         806110                MOV 0xC22, W0     
    3794    1DA2         4000F0                ADD W0, #0x10, W1 
    3795    1DA4         805970                MOV 0xB2E, W0     
    3796    1DA6         508F80                SUB W1, W0, [W15] 
    3797    1DA8         310006                BRA C, 0x1DB6     
    3798    1DAA         EB0000                CLR W0            
    3799    1DAC         8860F0                MOV W0, 0xC1E     
    3800    1DAE         806100                MOV 0xC20, W0     
    3801    1DB0         500FF6                SUB W0, #0x16, [W15]
    3802    1DB2         360001                BRA LEU, 0x1DB6   
    3803    1DB4         A94C27                BCLR 0xC27, #2    
    3804    1DB6         806380                MOV 0xC70, W0     
    3805    1DB8         E80000                INC W0, W0        
    3806    1DBA         886380                MOV W0, 0xC70     
    3807    1DBC         806380                MOV 0xC70, W0     
    3808    1DBE         500FE2                SUB W0, #0x2, [W15]
    3809    1DC0         36006F                BRA LEU, 0x1EA0   
    3810    1DC2         EB0000                CLR W0            
    3811    1DC4         886380                MOV W0, 0xC70     
    3812    1DC6         806320                MOV 0xC64, W0     
    3813    1DC8         E80000                INC W0, W0        
    3814    1DCA         886320                MOV W0, 0xC64     
    3815    1DCC         8060D0                MOV 0xC1A, W0     
    3816    1DCE         400FE1                ADD W0, #0x1, [W15]
    3817    1DD0         320003                BRA Z, 0x1DD8     
    3818    1DD2         8060D0                MOV 0xC1A, W0     
    3819    1DD4         E80000                INC W0, W0        
    3820    1DD6         8860D0                MOV W0, 0xC1A     
    3821    1DD8         8060D0                MOV 0xC1A, W0     
    3822    1DDA         500FEA                SUB W0, #0xA, [W15]
    3823    1DDC         360001                BRA LEU, 0x1DE0   
    3824    1DDE         A84096                BSET IEC1, #2     
    3825    1DE0         805E40                MOV 0xBC8, W0     
    3826    1DE2         600062                AND W0, #0x2, W0  
    3827    1DE4         E00000                CP0 W0            
    3828    1DE6         32002F                BRA Z, 0x1E46     
    3829    1DE8         806100                MOV 0xC20, W0     
    3830    1DEA         400FE1                ADD W0, #0x1, [W15]
    3831    1DEC         320003                BRA Z, 0x1DF4     
    3832    1DEE         806100                MOV 0xC20, W0     
    3833    1DF0         E80000                INC W0, W0        
    3834    1DF2         886100                MOV W0, 0xC20     
    3835    1DF4         805A20                MOV 0xB44, W0     
    3836    1DF6         400FE1                ADD W0, #0x1, [W15]
    3837    1DF8         320003                BRA Z, 0x1E00     
    3838    1DFA         805A20                MOV 0xB44, W0     
    3839    1DFC         E80000                INC W0, W0        
    3840    1DFE         885A20                MOV W0, 0xB44     
    3841    1E00         805A20                MOV 0xB44, W0     
    3842    1E02         500FFD                SUB W0, #0x1D, [W15]
    3843    1E04         360006                BRA LEU, 0x1E12   
    3844    1E06         BFC2CA                MOV.B PORTB, WREG 
    3845    1E08         604068                AND.B W0, #0x8, W0
    3846    1E0A         E00400                CP0.B W0          
    3847    1E0C         320002                BRA Z, 0x1E12     
    3848    1E0E         A80C26                BSET 0xC26, #0    
    3849    1E10         A82C76                BSET 0xC76, #1    
    3850    1E12         805A20                MOV 0xB44, W0     
    3851    1E14         500FE9                SUB W0, #0x9, [W15]
    3852    1E16         360007                BRA LEU, 0x1E26   
    3853    1E18         805E40                MOV 0xBC8, W0     
    3854    1E1A         200401                MOV #0x40, W1     
    3855    1E1C         600001                AND W0, W1, W0    
    3856    1E1E         E00000                CP0 W0            
    3857    1E20         3A0002                BRA NZ, 0x1E26    
    3858    1E22         A8CBC8                BSET 0xBC8, #6    
    3859    1E24         A88BC8                BSET 0xBC8, #4    
    3860    1E26         806340                MOV 0xC68, W0     
    3861    1E28         400FE1                ADD W0, #0x1, [W15]
    3862    1E2A         320003                BRA Z, 0x1E32     
    3863    1E2C         806340                MOV 0xC68, W0     
    3864    1E2E         E80000                INC W0, W0        
    3865    1E30         886340                MOV W0, 0xC68     
    3866    1E32         806341                MOV 0xC68, W1     
    3867    1E34         200630                MOV #0x63, W0     
    3868    1E36         508F80                SUB W1, W0, [W15] 
    3869    1E38         36000A                BRA LEU, 0x1E4E   
    3870    1E3A         806330                MOV 0xC66, W0     
    3871    1E3C         500FE1                SUB W0, #0x1, [W15]
    3872    1E3E         3A0007                BRA NZ, 0x1E4E    
    3873    1E40         EB0000                CLR W0            
    3874    1E42         886330                MOV W0, 0xC66     
    3875    1E44         370004                BRA 0x1E4E        
    3876    1E46         200010                MOV #0x1, W0      
    3877    1E48         886330                MOV W0, 0xC66     
    3878    1E4A         EB0000                CLR W0            
    3879    1E4C         886340                MOV W0, 0xC68     
    3880    1E4E         806130                MOV 0xC26, W0     
    3881    1E50         600062                AND W0, #0x2, W0  
    3882    1E52         E00000                CP0 W0            
    3883    1E54         32000A                BRA Z, 0x1E6A     
    3884    1E56         806130                MOV 0xC26, W0     
    3885    1E58         600064                AND W0, #0x4, W0  
    3886    1E5A         E00000                CP0 W0            
    3887    1E5C         320006                BRA Z, 0x1E6A     
    3888    1E5E         8060A0                MOV 0xC14, W0     
    3889    1E60         400FE1                ADD W0, #0x1, [W15]
    3890    1E62         320003                BRA Z, 0x1E6A     
    3891    1E64         8060A0                MOV 0xC14, W0     
    3892    1E66         E80000                INC W0, W0        
    3893    1E68         8860A0                MOV W0, 0xC14     
    3894    1E6A         805F40                MOV 0xBE8, W0     
    3895    1E6C         200401                MOV #0x40, W1     
    3896    1E6E         600001                AND W0, W1, W0    
    3897    1E70         E00000                CP0 W0            
    3898    1E72         320007                BRA Z, 0x1E82     
    3899    1E74         8059D1                MOV 0xB3A, W1     
    3900    1E76         2FF7F0                MOV #0xFF7F, W0   
    3901    1E78         608000                AND W1, W0, W0    
    3902    1E7A         8859D0                MOV W0, 0xB3A     
    3903    1E7C         EB0000                CLR W0            
    3904    1E7E         886360                MOV W0, 0xC6C     
    3905    1E80         37000F                BRA 0x1EA0        
    3906    1E82         806361                MOV 0xC6C, W1     
    3907    1E84         20FFE0                MOV #0xFFE, W0    
    3908    1E86         508F80                SUB W1, W0, [W15] 
    3909    1E88         3E0003                BRA GTU, 0x1E90   
    3910    1E8A         806360                MOV 0xC6C, W0     
    3911    1E8C         E80000                INC W0, W0        
    3912    1E8E         886360                MOV W0, 0xC6C     
    3913    1E90         806361                MOV 0xC6C, W1     
    3914    1E92         200640                MOV #0x64, W0     
    3915    1E94         508F80                SUB W1, W0, [W15] 
    3916    1E96         360004                BRA LEU, 0x1EA0   
    3917    1E98         8059D0                MOV 0xB3A, W0     
    3918    1E9A         200801                MOV #0x80, W1     
    3919    1E9C         700001                IOR W0, W1, W0    
    3920    1E9E         8859D0                MOV W0, 0xB3A     
    3921    1EA0         8040A0                MOV 0x814, W0     
    3922    1EA2         500FE4                SUB W0, #0x4, [W15]
    3923    1EA4         3A000B                BRA NZ, 0x1EBC    
    3924    1EA6         8058A1                MOV 0xB14, W1     
    3925    1EA8         2006E0                MOV #0x6E, W0     
    3926    1EAA         508F80                SUB W1, W0, [W15] 
    3927    1EAC         3E0007                BRA GTU, 0x1EBC   
    3928    1EAE         8058B1                MOV 0xB16, W1     
    3929    1EB0         2006E0                MOV #0x6E, W0     
    3930    1EB2         508F80                SUB W1, W0, [W15] 
    3931    1EB4         3E0003                BRA GTU, 0x1EBC   
    3932    1EB6         8060B0                MOV 0xC16, W0     
    3933    1EB8         E80000                INC W0, W0        
    3934    1EBA         8860B0                MOV W0, 0xC16     
    3935    1EBC         8059F0                MOV 0xB3E, W0     
    3936    1EBE         E00000                CP0 W0            
    3937    1EC0         320003                BRA Z, 0x1EC8     
    3938    1EC2         805A10                MOV 0xB42, W0     
    3939    1EC4         E80000                INC W0, W0        
    3940    1EC6         885A10                MOV W0, 0xB42     
    3941    1EC8         805B00                MOV 0xB60, W0     
    3942    1ECA         E80000                INC W0, W0        
    3943    1ECC         885B00                MOV W0, 0xB60     
    3944    1ECE         806050                MOV 0xC0A, W0     
    3945    1ED0         E80000                INC W0, W0        
    3946    1ED2         886050                MOV W0, 0xC0A     
    3947    1ED4         806091                MOV 0xC12, W1     
    3948    1ED6         26C7F0                MOV #0x6C7F, W0   
    3949    1ED8         508F80                SUB W1, W0, [W15] 
    3950    1EDA         3E0012                BRA GTU, 0x1F00   
    3951    1EDC         806090                MOV 0xC12, W0     
    3952    1EDE         DE00C7                LSR W0, #7, W1    
    3953    1EE0         200D40                MOV #0xD4, W0     
    3954    1EE2         500001                SUB W0, W1, W0    
    3955    1EE4         885B80                MOV W0, 0xB70     
    3956    1EE6         805B80                MOV 0xB70, W0     
    3957    1EE8         500FE2                SUB W0, #0x2, [W15]
    3958    1EEA         3E0003                BRA GTU, 0x1EF2   
    3959    1EEC         200030                MOV #0x3, W0      
    3960    1EEE         885B80                MOV W0, 0xB70     
    3961    1EF0         370009                BRA 0x1F04        
    3962    1EF2         805B81                MOV 0xB70, W1     
    3963    1EF4         200500                MOV #0x50, W0     
    3964    1EF6         508F80                SUB W1, W0, [W15] 
    3965    1EF8         360005                BRA LEU, 0x1F04   
    3966    1EFA         200500                MOV #0x50, W0     
    3967    1EFC         885B80                MOV W0, 0xB70     
    3968    1EFE         370002                BRA 0x1F04        
    3969    1F00         200010                MOV #0x1, W0      
    3970    1F02         885B80                MOV W0, 0xB70     
    3971    1F04         806130                MOV 0xC26, W0     
    3972    1F06         600064                AND W0, #0x4, W0  
    3973    1F08         E00000                CP0 W0            
    3974    1F0A         320008                BRA Z, 0x1F1C     
    3975    1F0C         806091                MOV 0xC12, W1     
    3976    1F0E         27FFE0                MOV #0x7FFE, W0   
    3977    1F10         508F80                SUB W1, W0, [W15] 
    3978    1F12         3E0004                BRA GTU, 0x1F1C   
    3979    1F14         806090                MOV 0xC12, W0     
    3980    1F16         805B81                MOV 0xB70, W1     
    3981    1F18         400001                ADD W0, W1, W0    
    3982    1F1A         886090                MOV W0, 0xC12     
    3983    1F1C         8060E0                MOV 0xC1C, W0     
    3984    1F1E         400FE1                ADD W0, #0x1, [W15]
    3985    1F20         320003                BRA Z, 0x1F28     
    3986    1F22         8060E0                MOV 0xC1C, W0     
    3987    1F24         E80000                INC W0, W0        
    3988    1F26         8860E0                MOV W0, 0xC1C     
    3989    1F28         805971                MOV 0xB2E, W1     
    3990    1F2A         806370                MOV 0xC6E, W0     
    3991    1F2C         508F80                SUB W1, W0, [W15] 
    3992    1F2E         310007                BRA C, 0x1F3E     
    3993    1F30         806350                MOV 0xC6A, W0     
    3994    1F32         500FE7                SUB W0, #0x7, [W15]
    3995    1F34         3E000F                BRA GTU, 0x1F54   
    3996    1F36         806350                MOV 0xC6A, W0     
    3997    1F38         E80000                INC W0, W0        
    3998    1F3A         886350                MOV W0, 0xC6A     
    3999    1F3C         37000B                BRA 0x1F54        
    4000    1F3E         806370                MOV 0xC6E, W0     
    4001    1F40         4000F4                ADD W0, #0x14, W1 
    4002    1F42         805970                MOV 0xB2E, W0     
    4003    1F44         508F80                SUB W1, W0, [W15] 
    4004    1F46         310006                BRA C, 0x1F54     
    4005    1F48         806350                MOV 0xC6A, W0     
    4006    1F4A         E00000                CP0 W0            
    4007    1F4C         320003                BRA Z, 0x1F54     
    4008    1F4E         806350                MOV 0xC6A, W0     
    4009    1F50         E90000                DEC W0, W0        
    4010    1F52         886350                MOV W0, 0xC6A     
    4011    1F54         A96084                BCLR IFS0, #3     
    4012    1F56         FA8000                ULNK              
    4013    1F58         BE004F                MOV.D [--W15], W0 
    4014    1F5A         064000                RETFIE            
    4015    1F5C         FA0000                LNK #0x0          
    4016    1F5E         805C80                MOV 0xB90, W0     
    4017    1F60         805C91                MOV 0xB92, W1     
    4018    1F62         805CA2                MOV 0xB94, W2     
    4019    1F64         805CB3                MOV 0xB96, W3     
    4020    1F66         07F21F                RCALL 0x3A6       
    4021    1F68         BE0100                MOV.D W0, W2      
    4022    1F6A         805CA0                MOV 0xB94, W0     
    4023    1F6C         805CB1                MOV 0xB96, W1     
    4024    1F6E         400002                ADD W0, W2, W0    
    4025    1F70         488083                ADDC W1, W3, W1   
    4026    1F72         D10081                LSR W1, W1        
    4027    1F74         D38000                RRC W0, W0        
    4028    1F76         885CA0                MOV W0, 0xB94     
    4029    1F78         885CB1                MOV W1, 0xB96     
    4030    1F7A         805CA0                MOV 0xB94, W0     
    4031    1F7C         805CB1                MOV 0xB96, W1     
    4032    1F7E         500FE0                SUB W0, #0x0, [W15]
    4033    1F80         588FE0                SUBB W1, #0x0, [W15]
    4034    1F82         3A0004                BRA NZ, 0x1F8C    
    4035    1F84         200010                MOV #0x1, W0      
    4036    1F86         200001                MOV #0x0, W1      
    4037    1F88         885CA0                MOV W0, 0xB94     
    4038    1F8A         885CB1                MOV W1, 0xB96     
    4039    1F8C         805D00                MOV 0xBA0, W0     
    4040    1F8E         805D11                MOV 0xBA2, W1     
    4041    1F90         805D22                MOV 0xBA4, W2     
    4042    1F92         805D33                MOV 0xBA6, W3     
    4043    1F94         07F208                RCALL 0x3A6       
    4044    1F96         BE0100                MOV.D W0, W2      
    4045    1F98         805D20                MOV 0xBA4, W0     
    4046    1F9A         805D31                MOV 0xBA6, W1     
    4047    1F9C         400002                ADD W0, W2, W0    
    4048    1F9E         488083                ADDC W1, W3, W1   
    4049    1FA0         D10081                LSR W1, W1        
    4050    1FA2         D38000                RRC W0, W0        
    4051    1FA4         885D20                MOV W0, 0xBA4     
    4052    1FA6         885D31                MOV W1, 0xBA6     
    4053    1FA8         805D20                MOV 0xBA4, W0     
    4054    1FAA         805D31                MOV 0xBA6, W1     
    4055    1FAC         500FE0                SUB W0, #0x0, [W15]
    4056    1FAE         588FE0                SUBB W1, #0x0, [W15]
    4057    1FB0         3A0004                BRA NZ, 0x1FBA    
    4058    1FB2         200010                MOV #0x1, W0      
    4059    1FB4         200001                MOV #0x0, W1      
    4060    1FB6         885D20                MOV W0, 0xBA4     
    4061    1FB8         885D31                MOV W1, 0xBA6     
    4062    1FBA         EB0000                CLR W0            
    4063    1FBC         885C30                MOV W0, 0xB86     
    4064    1FBE         805CA0                MOV 0xB94, W0     
    4065    1FC0         805CB1                MOV 0xB96, W1     
    4066    1FC2         780080                MOV W0, W1        
    4067    1FC4         805C30                MOV 0xB86, W0     
    4068    1FC6         408000                ADD W1, W0, W0    
    4069    1FC8         885E60                MOV W0, 0xBCC     
    4070    1FCA         805E00                MOV 0xBC0, W0     
    4071    1FCC         805E11                MOV 0xBC2, W1     
    4072    1FCE         885E80                MOV W0, 0xBD0     
    4073    1FD0         805D22                MOV 0xBA4, W2     
    4074    1FD2         805D33                MOV 0xBA6, W3     
    4075    1FD4         200E70                MOV #0xE7, W0     
    4076    1FD6         B81200                MUL.UU W2, W0, W4 
    4077    1FD8         B91060                MUL.SU W2, #0, W0 
    4078    1FDA         780305                MOV W5, W6        
    4079    1FDC         430300                ADD W6, W0, W6    
    4080    1FDE         200E70                MOV #0xE7, W0     
    4081    1FE0         B99800                MUL.SS W3, W0, W0 
    4082    1FE2         430300                ADD W6, W0, W6    
    4083    1FE4         780286                MOV W6, W5        
    4084    1FE6         DD294C                SL W5, #12, W2    
    4085    1FE8         DE2044                LSR W4, #4, W0    
    4086    1FEA         710000                IOR W2, W0, W0    
    4087    1FEC         DE28C4                LSR W5, #4, W1    
    4088    1FEE         885E50                MOV W0, 0xBCA     
    4089    1FF0         805C20                MOV 0xB84, W0     
    4090    1FF2         885F30                MOV W0, 0xBE6     
    4091    1FF4         805E00                MOV 0xBC0, W0     
    4092    1FF6         805E11                MOV 0xBC2, W1     
    4093    1FF8         805D22                MOV 0xBA4, W2     
    4094    1FFA         805D33                MOV 0xBA6, W3     
    4095    1FFC         07F1D4                RCALL 0x3A6       
    4096    1FFE         885E20                MOV W0, 0xBC4     
    4097    2000         885E31                MOV W1, 0xBC6     
    4098    2002         805E20                MOV 0xBC4, W0     
    4099    2004         805E31                MOV 0xBC6, W1     
    4100    2006         DD0A4F                SL W1, #15, W4    
    4101    2008         DE02C1                LSR W0, #1, W5    
    4102    200A         720285                IOR W4, W5, W5    
    4103    200C         DD024F                SL W0, #15, W4    
    4104    200E         805CA0                MOV 0xB94, W0     
    4105    2010         805CB1                MOV 0xB96, W1     
    4106    2012         B80161                MUL.UU W0, #1, W2 
    4107    2014         BE0004                MOV.D W4, W0      
    4108    2016         07F1C7                RCALL 0x3A6       
    4109    2018         885E70                MOV W0, 0xBCE     
    4110    201A         FA8000                ULNK              
    4111    201C         060000                RETURN            
    4112    201E         BE9F80                MOV.D W0, [W15++] 
    4113    2020         BE9F82                MOV.D W2, [W15++] 
    4114    2022         781F84                MOV W4, [W15++]   
    4115    2024         BE9F86                MOV.D W6, [W15++] 
    4116    2026         BE9F88                MOV.D W8, [W15++] 
    4117    2028         FA0000                LNK #0x0          
    4118    202A         801940                MOV ADCBUF4, W0   
    4119    202C         885C00                MOV W0, 0xB80     
    4120    202E         801950                MOV ADCBUF5, W0   
    4121    2030         885C20                MOV W0, 0xB84     
    4122    2032         8058A0                MOV 0xB14, W0     
    4123    2034         400065                ADD W0, #0x5, W0  
    4124    2036         885C10                MOV W0, 0xB82     
    4125    2038         805C00                MOV 0xB80, W0     
    4126    203A         B9006D                MUL.SU W0, #13, W0
    4127    203C         DE00C6                LSR W0, #6, W1    
    4128    203E         805C00                MOV 0xB80, W0     
    4129    2040         408000                ADD W1, W0, W0    
    4130    2042         885C00                MOV W0, 0xB80     
    4131    2044         805C00                MOV 0xB80, W0     
    4132    2046         B80461                MUL.UU W0, #1, W8 
    4133    2048         805C00                MOV 0xB80, W0     
    4134    204A         B80161                MUL.UU W0, #1, W2 
    4135    204C         B84302                MUL.UU W8, W2, W6 
    4136    204E         B9C003                MUL.SS W8, W3, W0 
    4137    2050         780207                MOV W7, W4        
    4138    2052         420200                ADD W4, W0, W4    
    4139    2054         B99009                MUL.SS W2, W9, W0 
    4140    2056         420200                ADD W4, W0, W4    
    4141    2058         780384                MOV W4, W7        
    4142    205A         885C46                MOV W6, 0xB88     
    4143    205C         885C57                MOV W7, 0xB8A     
    4144    205E         805C62                MOV 0xB8C, W2     
    4145    2060         805C73                MOV 0xB8E, W3     
    4146    2062         805C40                MOV 0xB88, W0     
    4147    2064         805C51                MOV 0xB8A, W1     
    4148    2066         400102                ADD W0, W2, W2    
    4149    2068         488183                ADDC W1, W3, W3   
    4150    206A         805C80                MOV 0xB90, W0     
    4151    206C         805C91                MOV 0xB92, W1     
    4152    206E         510000                SUB W2, W0, W0    
    4153    2070         598081                SUBB W3, W1, W1   
    4154    2072         885C60                MOV W0, 0xB8C     
    4155    2074         885C71                MOV W1, 0xB8E     
    4156    2076         805C60                MOV 0xB8C, W0     
    4157    2078         805C71                MOV 0xB8E, W1     
    4158    207A         DD0947                SL W1, #7, W2     
    4159    207C         DE0049                LSR W0, #9, W0    
    4160    207E         710000                IOR W2, W0, W0    
    4161    2080         DE08C9                LSR W1, #9, W1    
    4162    2082         885C80                MOV W0, 0xB90     
    4163    2084         885C91                MOV W1, 0xB92     
    4164    2086         805C10                MOV 0xB82, W0     
    4165    2088         B80461                MUL.UU W0, #1, W8 
    4166    208A         805C10                MOV 0xB82, W0     
    4167    208C         B80161                MUL.UU W0, #1, W2 
    4168    208E         B84302                MUL.UU W8, W2, W6 
    4169    2090         B9C003                MUL.SS W8, W3, W0 
    4170    2092         780207                MOV W7, W4        
    4171    2094         420200                ADD W4, W0, W4    
    4172    2096         B99009                MUL.SS W2, W9, W0 
    4173    2098         420200                ADD W4, W0, W4    
    4174    209A         780384                MOV W4, W7        
    4175    209C         885CC6                MOV W6, 0xB98     
    4176    209E         885CD7                MOV W7, 0xB9A     
    4177    20A0         805CE2                MOV 0xB9C, W2     
    4178    20A2         805CF3                MOV 0xB9E, W3     
    4179    20A4         805CC0                MOV 0xB98, W0     
    4180    20A6         805CD1                MOV 0xB9A, W1     
    4181    20A8         400102                ADD W0, W2, W2    
    4182    20AA         488183                ADDC W1, W3, W3   
    4183    20AC         805D00                MOV 0xBA0, W0     
    4184    20AE         805D11                MOV 0xBA2, W1     
    4185    20B0         510000                SUB W2, W0, W0    
    4186    20B2         598081                SUBB W3, W1, W1   
    4187    20B4         885CE0                MOV W0, 0xB9C     
    4188    20B6         885CF1                MOV W1, 0xB9E     
    4189    20B8         805CE0                MOV 0xB9C, W0     
    4190    20BA         805CF1                MOV 0xB9E, W1     
    4191    20BC         DD0A47                SL W1, #7, W4     
    4192    20BE         DE0049                LSR W0, #9, W0    
    4193    20C0         720000                IOR W4, W0, W0    
    4194    20C2         DE08C9                LSR W1, #9, W1    
    4195    20C4         885D00                MOV W0, 0xBA0     
    4196    20C6         885D11                MOV W1, 0xBA2     
    4197    20C8         805D42                MOV 0xBA8, W2     
    4198    20CA         805D53                MOV 0xBAA, W3     
    4199    20CC         805CC0                MOV 0xB98, W0     
    4200    20CE         805CD1                MOV 0xB9A, W1     
    4201    20D0         400002                ADD W0, W2, W0    
    4202    20D2         488083                ADDC W1, W3, W1   
    4203    20D4         885D40                MOV W0, 0xBA8     
    4204    20D6         885D51                MOV W1, 0xBAA     
    4205    20D8         805C10                MOV 0xB82, W0     
    4206    20DA         B80161                MUL.UU W0, #1, W2 
    4207    20DC         805DA0                MOV 0xBB4, W0     
    4208    20DE         805DB1                MOV 0xBB6, W1     
    4209    20E0         400002                ADD W0, W2, W0    
    4210    20E2         488083                ADDC W1, W3, W1   
    4211    20E4         885DA0                MOV W0, 0xBB4     
    4212    20E6         885DB1                MOV W1, 0xBB6     
    4213    20E8         805C00                MOV 0xB80, W0     
    4214    20EA         B80361                MUL.UU W0, #1, W6 
    4215    20EC         805C10                MOV 0xB82, W0     
    4216    20EE         B80161                MUL.UU W0, #1, W2 
    4217    20F0         B83402                MUL.UU W6, W2, W8 
    4218    20F2         B9B003                MUL.SS W6, W3, W0 
    4219    20F4         780209                MOV W9, W4        
    4220    20F6         420200                ADD W4, W0, W4    
    4221    20F8         B99007                MUL.SS W2, W7, W0 
    4222    20FA         420200                ADD W4, W0, W4    
    4223    20FC         780484                MOV W4, W9        
    4224    20FE         200E70                MOV #0xE7, W0     
    4225    2100         B84100                MUL.UU W8, W0, W2 
    4226    2102         B94060                MUL.SU W8, #0, W0 
    4227    2104         780203                MOV W3, W4        
    4228    2106         420200                ADD W4, W0, W4    
    4229    2108         200E70                MOV #0xE7, W0     
    4230    210A         B9C800                MUL.SS W9, W0, W0 
    4231    210C         420200                ADD W4, W0, W4    
    4232    210E         780184                MOV W4, W3        
    4233    2110         DD1A41                SL W3, #1, W4     
    4234    2112         DE104F                LSR W2, #15, W0   
    4235    2114         720000                IOR W4, W0, W0    
    4236    2116         DE18CF                LSR W3, #15, W1   
    4237    2118         885DC0                MOV W0, 0xBB8     
    4238    211A         885DD1                MOV W1, 0xBBA     
    4239    211C         805DE2                MOV 0xBBC, W2     
    4240    211E         805DF3                MOV 0xBBE, W3     
    4241    2120         805DC0                MOV 0xBB8, W0     
    4242    2122         805DD1                MOV 0xBBA, W1     
    4243    2124         400102                ADD W0, W2, W2    
    4244    2126         488183                ADDC W1, W3, W3   
    4245    2128         805E00                MOV 0xBC0, W0     
    4246    212A         805E11                MOV 0xBC2, W1     
    4247    212C         510000                SUB W2, W0, W0    
    4248    212E         598081                SUBB W3, W1, W1   
    4249    2130         885DE0                MOV W0, 0xBBC     
    4250    2132         885DF1                MOV W1, 0xBBE     
    4251    2134         805DE0                MOV 0xBBC, W0     
    4252    2136         805DF1                MOV 0xBBE, W1     
    4253    2138         DD0947                SL W1, #7, W2     
    4254    213A         DE0049                LSR W0, #9, W0    
    4255    213C         710000                IOR W2, W0, W0    
    4256    213E         DE08C9                LSR W1, #9, W1    
    4257    2140         885E00                MOV W0, 0xBC0     
    4258    2142         885E11                MOV W1, 0xBC2     
    4259    2144         A94306                BCLR ADSTAT, #2   
    4260    2146         A90092                BCLR IFS7, #0     
    4261    2148         FA8000                ULNK              
    4262    214A         BE044F                MOV.D [--W15], W8 
    4263    214C         BE034F                MOV.D [--W15], W6 
    4264    214E         78024F                MOV [--W15], W4   
    4265    2150         BE014F                MOV.D [--W15], W2 
    4266    2152         BE004F                MOV.D [--W15], W0 
    4267    2154         064000                RETFIE            
    4268    2156         FA0000                LNK #0x0          
    4269    2158         200290                MOV #0x29, W0     
    4270    215A         883A30                MOV W0, PLLFBD    
    4271    215C         BFC744                MOV.B CLKDIV, WREG
    4272    215E         B243F0                AND.B #0x3F, W0   
    4273    2160         B7E744                MOV.B WREG, CLKDIV
    4274    2162         207441                MOV #0x744, W1    
    4275    2164         784091                MOV.B [W1], W1    
    4276    2166         B3CE00                MOV.B #0xE0, W0   
    4277    2168         60C000                AND.B W1, W0, W0  
    4278    216A         B7E744                MOV.B WREG, CLKDIV
    4279    216C         200012                MOV #0x1, W2      
    4280    216E         200781                MOV #0x78, W1     
    4281    2170         2009A0                MOV #0x9A, W0     
    4282    2172         207433                MOV #0x743, W3    
    4283    2174         784981                MOV.B W1, [W3]    
    4284    2176         784980                MOV.B W0, [W3]    
    4285    2178         784982                MOV.B W2, [W3]    
    4286    217A         200012                MOV #0x1, W2      
    4287    217C         200461                MOV #0x46, W1     
    4288    217E         200570                MOV #0x57, W0     
    4289    2180         207423                MOV #0x742, W3    
    4290    2182         784981                MOV.B W1, [W3]    
    4291    2184         784980                MOV.B W0, [W3]    
    4292    2186         784982                MOV.B W2, [W3]    
    4293    2188         BFC743                MOV.B 0x743, WREG 
    4294    218A         B24700                AND.B #0x70, W0   
    4295    218C         504FF0                SUB.B W0, #0x10, [W15]
    4296    218E         3AFFFC                BRA NZ, 0x2188    
    4297    2190         BFC742                MOV.B OSCCON, WREG
    4298    2192         B24200                AND.B #0x20, W0   
    4299    2194         E00400                CP0.B W0          
    4300    2196         32FFFC                BRA Z, 0x2190     
    4301    2198         A8C750                BSET ACLKCON, #6  
    4302    219A         A8A751                BSET 0x751, #5    
    4303    219C         207511                MOV #0x751, W1    
    4304    219E         784091                MOV.B [W1], W1    
    4305    21A0         B3CF80                MOV.B #0xF8, W0   
    4306    21A2         60C000                AND.B W1, W0, W0  
    4307    21A4         B34060                IOR.B #0x6, W0    
    4308    21A6         B7E751                MOV.B WREG, 0x751 
    4309    21A8         A8E751                BSET 0x751, #7    
    4310    21AA         BFC751                MOV.B 0x751, WREG 
    4311    21AC         B24400                AND.B #0x40, W0   
    4312    21AE         E00400                CP0.B W0          
    4313    21B0         32FFFC                BRA Z, 0x21AA     
    4314    21B2         FA8000                ULNK              
    4315    21B4         060000                RETURN            
    4316    21B6         FA0000                LNK #0x0          
    4317    21B8         205401                MOV #0x540, W1    
    4318    21BA         784091                MOV.B [W1], W1    
    4319    21BC         B3CC00                MOV.B #0xC0, W0   
    4320    21BE         70C000                IOR.B W1, W0, W0  
    4321    21C0         B7E540                MOV.B WREG, CMPCON1
    4322    21C2         A9A540                BCLR CMPCON1, #5  
    4323    21C4         A80540                BSET CMPCON1, #0  
    4324    21C6         203FF0                MOV #0x3FF, W0    
    4325    21C8         882A10                MOV W0, CMPDAC1   
    4326    21CA         A94086                BCLR IFS1, #2     
    4327    21CC         A84096                BSET IEC1, #2     
    4328    21CE         200AD1                MOV #0xAD, W1     
    4329    21D0         784091                MOV.B [W1], W1    
    4330    21D2         B3CF80                MOV.B #0xF8, W0   
    4331    21D4         60C000                AND.B W1, W0, W0  
    4332    21D6         B34060                IOR.B #0x6, W0    
    4333    21D8         B7E0AD                MOV.B WREG, 0xAD  
    4334    21DA         A8E541                BSET 0x541, #7    
    4335    21DC         FA8000                ULNK              
    4336    21DE         060000                RETURN            
    4337    21E0         FA0000                LNK #0x0          
    4338    21E2         EB0000                CLR W0            
    4339    21E4         881660                MOV W0, LATB      
    4340    21E6         A902CD                BCLR 0x2CD, #0    
    4341    21E8         A962CD                BCLR 0x2CD, #3    
    4342    21EA         A9A2CC                BCLR LATB, #5     
    4343    21EC         A982CD                BCLR 0x2CD, #4    
    4344    21EE         2A6D30                MOV #0xA6D3, W0   
    4345    21F0         881640                MOV W0, TRISB     
    4346    21F2         A982C4                BCLR LATA, #4     
    4347    21F4         A982C0                BCLR TRISA, #4    
    4348    21F6         A962C4                BCLR LATA, #3     
    4349    21F8         A962C0                BCLR TRISA, #3    
    4350    21FA         FA8000                ULNK              
    4351    21FC         060000                RETURN            
    4352    21FE         FA0000                LNK #0x0          
    4353    2200         234150                MOV #0x3415, W0   
    4354    2202         880810                MOV W0, PR1       
    4355    2204         A86094                BSET IEC0, #3     
    4356    2206         A8E105                BSET 0x105, #7    
    4357    2208         FA8000                ULNK              
    4358    220A         060000                RETURN            
    4359    220C         FA0000                LNK #0x0          
    4360    220E         EB0000                CLR W0            
    4361    2210         881810                MOV W0, ADPCFG    
    4362    2212         203001                MOV #0x300, W1    
    4363    2214         784091                MOV.B [W1], W1    
    4364    2216         B3CF80                MOV.B #0xF8, W0   
    4365    2218         60C000                AND.B W1, W0, W0  
    4366    221A         A01400                BSET.B W0, #1     
    4367    221C         B7E300                MOV.B WREG, ADCON 
    4368    221E         2030A1                MOV #0x30A, W1    
    4369    2220         784091                MOV.B [W1], W1    
    4370    2222         B3CE00                MOV.B #0xE0, W0   
    4371    2224         60C000                AND.B W1, W0, W0  
    4372    2226         A02400                BSET.B W0, #2     
    4373    2228         B7E30A                MOV.B WREG, ADCPC0
    4374    222A         2030B1                MOV #0x30B, W1    
    4375    222C         784091                MOV.B [W1], W1    
    4376    222E         B3CE00                MOV.B #0xE0, W0   
    4377    2230         60C000                AND.B W1, W0, W0  
    4378    2232         A02400                BSET.B W0, #2     
    4379    2234         B7E30B                MOV.B WREG, 0x30B 
    4380    2236         2030C1                MOV #0x30C, W1    
    4381    2238         784091                MOV.B [W1], W1    
    4382    223A         B3CE00                MOV.B #0xE0, W0   
    4383    223C         60C000                AND.B W1, W0, W0  
    4384    223E         B340C0                IOR.B #0xC, W0    
    4385    2240         B7E30C                MOV.B WREG, ADCPC1
    4386    2242         2030D1                MOV #0x30D, W1    
    4387    2244         784091                MOV.B [W1], W1    
    4388    2246         B3CE00                MOV.B #0xE0, W0   
    4389    2248         60C000                AND.B W1, W0, W0  
    4390    224A         A02400                BSET.B W0, #2     
    4391    224C         B7E30D                MOV.B WREG, 0x30D 
    4392    224E         A90306                BCLR ADSTAT, #0   
    4393    2250         A92306                BCLR ADSTAT, #1   
    4394    2252         A94306                BCLR ADSTAT, #2   
    4395    2254         A96306                BCLR ADSTAT, #3   
    4396    2256         A8E30A                BSET ADCPC0, #7   
    4397    2258         A8E30B                BSET 0x30B, #7    
    4398    225A         A8E30C                BSET ADCPC1, #7   
    4399    225C         A8E30D                BSET 0x30D, #7    
    4400    225E         A9C091                BCLR 0x91, #6     
    4401    2260         200DB1                MOV #0xDB, W1     
    4402    2262         784091                MOV.B [W1], W1    
    4403    2264         B3CF80                MOV.B #0xF8, W0   
    4404    2266         60C000                AND.B W1, W0, W0  
    4405    2268         B34050                IOR.B #0x5, W0    
    4406    226A         B7E0DB                MOV.B WREG, 0xDB  
    4407    226C         A8C0A1                BSET 0xA1, #6     
    4408    226E         A9E091                BCLR 0x91, #7     
    4409    2270         200DB1                MOV #0xDB, W1     
    4410    2272         784091                MOV.B [W1], W1    
    4411    2274         B3C8F0                MOV.B #0x8F, W0   
    4412    2276         60C000                AND.B W1, W0, W0  
    4413    2278         B3C501                MOV.B #0x50, W1   
    4414    227A         704001                IOR.B W0, W1, W0  
    4415    227C         B7E0DB                MOV.B WREG, 0xDB  
    4416    227E         A8E0A1                BSET 0xA1, #7     
    4417    2280         A90092                BCLR IFS7, #0     
    4418    2282         200DC1                MOV #0xDC, W1     
    4419    2284         784091                MOV.B [W1], W1    
    4420    2286         B3CF80                MOV.B #0xF8, W0   
    4421    2288         60C000                AND.B W1, W0, W0  
    4422    228A         A02400                BSET.B W0, #2     
    4423    228C         B7E0DC                MOV.B WREG, IPC28 
    4424    228E         A800A2                BSET IEC7, #0     
    4425    2290         A92092                BCLR IFS7, #1     
    4426    2292         200DC1                MOV #0xDC, W1     
    4427    2294         784091                MOV.B [W1], W1    
    4428    2296         B3C8F0                MOV.B #0x8F, W0   
    4429    2298         60C000                AND.B W1, W0, W0  
    4430    229A         B3C501                MOV.B #0x50, W1   
    4431    229C         704001                IOR.B W0, W1, W0  
    4432    229E         B7E0DC                MOV.B WREG, IPC28 
    4433    22A0         A820A2                BSET IEC7, #1     
    4434    22A2         FA8000                ULNK              
    4435    22A4         060000                RETURN            
    4436    22A6         FA0000                LNK #0x0          
    4437    22A8         FA8000                ULNK              
    4438    22AA         060000                RETURN            
    4439    22AC         BE9F80                MOV.D W0, [W15++] 
    4440    22AE         FA0000                LNK #0x0          
    4441    22B0         801960                MOV ADCBUF6, W0   
    4442    22B2         885B50                MOV W0, 0xB6A     
    4443    22B4         805B51                MOV 0xB6A, W1     
    4444    22B6         203330                MOV #0x333, W0    
    4445    22B8         508F80                SUB W1, W0, [W15] 
    4446    22BA         3E000C                BRA GTU, 0x22D4   
    4447    22BC         8040A0                MOV 0x814, W0     
    4448    22BE         500FE3                SUB W0, #0x3, [W15]
    4449    22C0         3A0009                BRA NZ, 0x22D4    
    4450    22C2         805A80                MOV 0xB50, W0     
    4451    22C4         4000EA                ADD W0, #0xA, W1  
    4452    22C6         805A90                MOV 0xB52, W0     
    4453    22C8         508F80                SUB W1, W0, [W15] 
    4454    22CA         310004                BRA C, 0x22D4     
    4455    22CC         805A90                MOV 0xB52, W0     
    4456    22CE         B90065                MUL.SU W0, #5, W0 
    4457    22D0         DE0043                LSR W0, #3, W0    
    4458    22D2         885AA0                MOV W0, 0xB54     
    4459    22D4         805A81                MOV 0xB50, W1     
    4460    22D6         2026B0                MOV #0x26B, W0    
    4461    22D8         508F80                SUB W1, W0, [W15] 
    4462    22DA         3E0022                BRA GTU, 0x2320   
    4463    22DC         806190                MOV 0xC32, W0     
    4464    22DE         780090                MOV [W0], W1      
    4465    22E0         253330                MOV #0x5333, W0   
    4466    22E2         508F80                SUB W1, W0, [W15] 
    4467    22E4         3A0015                BRA NZ, 0x2310    
    4468    22E6         806190                MOV 0xC32, W0     
    4469    22E8         E88000                INC2 W0, W0       
    4470    22EA         780090                MOV [W0], W1      
    4471    22EC         2C0000                MOV #0xC000, W0   
    4472    22EE         508F80                SUB W1, W0, [W15] 
    4473    22F0         3A000F                BRA NZ, 0x2310    
    4474    22F2         806271                MOV 0xC4E, W1     
    4475    22F4         200500                MOV #0x50, W0     
    4476    22F6         508F80                SUB W1, W0, [W15] 
    4477    22F8         36000B                BRA LEU, 0x2310   
    4478    22FA         806191                MOV 0xC32, W1     
    4479    22FC         2428F0                MOV #0x428F, W0   
    4480    22FE         780880                MOV W0, [W1]      
    4481    2300         806190                MOV 0xC32, W0     
    4482    2302         E88080                INC2 W0, W1       
    4483    2304         2C6660                MOV #0xC666, W0   
    4484    2306         780880                MOV W0, [W1]      
    4485    2308         806190                MOV 0xC32, W0     
    4486    230A         4000E4                ADD W0, #0x4, W1  
    4487    230C         EB0000                CLR W0            
    4488    230E         780880                MOV W0, [W1]      
    4489    2310         806271                MOV 0xC4E, W1     
    4490    2312         200870                MOV #0x87, W0     
    4491    2314         508F80                SUB W1, W0, [W15] 
    4492    2316         360029                BRA LEU, 0x236A   
    4493    2318         8059D0                MOV 0xB3A, W0     
    4494    231A         A00000                BSET W0, #0       
    4495    231C         8859D0                MOV W0, 0xB3A     
    4496    231E         370025                BRA 0x236A        
    4497    2320         805A81                MOV 0xB50, W1     
    4498    2322         202800                MOV #0x280, W0    
    4499    2324         508F80                SUB W1, W0, [W15] 
    4500    2326         360021                BRA LEU, 0x236A   
    4501    2328         806190                MOV 0xC32, W0     
    4502    232A         780090                MOV [W0], W1      
    4503    232C         25FFF0                MOV #0x5FFF, W0   
    4504    232E         508F80                SUB W1, W0, [W15] 
    4505    2330         3A0015                BRA NZ, 0x235C    
    4506    2332         806190                MOV 0xC32, W0     
    4507    2334         E88000                INC2 W0, W0       
    4508    2336         780090                MOV [W0], W1      
    4509    2338         2C0000                MOV #0xC000, W0   
    4510    233A         508F80                SUB W1, W0, [W15] 
    4511    233C         3A000F                BRA NZ, 0x235C    
    4512    233E         806271                MOV 0xC4E, W1     
    4513    2340         200460                MOV #0x46, W0     
    4514    2342         508F80                SUB W1, W0, [W15] 
    4515    2344         36000B                BRA LEU, 0x235C   
    4516    2346         806191                MOV 0xC32, W1     
    4517    2348         261470                MOV #0x6147, W0   
    4518    234A         780880                MOV W0, [W1]      
    4519    234C         806190                MOV 0xC32, W0     
    4520    234E         E88080                INC2 W0, W1       
    4521    2350         2AE140                MOV #0xAE14, W0   
    4522    2352         780880                MOV W0, [W1]      
    4523    2354         806190                MOV 0xC32, W0     
    4524    2356         4000E4                ADD W0, #0x4, W1  
    4525    2358         EB0000                CLR W0            
    4526    235A         780880                MOV W0, [W1]      
    4527    235C         806271                MOV 0xC4E, W1     
    4528    235E         200910                MOV #0x91, W0     
    4529    2360         508F80                SUB W1, W0, [W15] 
    4530    2362         360003                BRA LEU, 0x236A   
    4531    2364         8059D0                MOV 0xB3A, W0     
    4532    2366         A00000                BSET W0, #0       
    4533    2368         8859D0                MOV W0, 0xB3A     
    4534    236A         A96306                BCLR ADSTAT, #3   
    4535    236C         A92092                BCLR IFS7, #1     
    4536    236E         FA8000                ULNK              
    4537    2370         BE004F                MOV.D [--W15], W0 
    4538    2372         064000                RETFIE            
    4539    2374         FA0000                LNK #0x0          
    4540    2376         805F40                MOV 0xBE8, W0     
    4541    2378         600064                AND W0, #0x4, W0  
    4542    237A         E00000                CP0 W0            
    4543    237C         320007                BRA Z, 0x238C     
    4544    237E         8062C0                MOV 0xC58, W0     
    4545    2380         600064                AND W0, #0x4, W0  
    4546    2382         E00000                CP0 W0            
    4547    2384         320003                BRA Z, 0x238C     
    4548    2386         A94C58                BCLR 0xC58, #2    
    4549    2388         A902CD                BCLR 0x2CD, #0    
    4550    238A         370009                BRA 0x239E        
    4551    238C         805F40                MOV 0xBE8, W0     
    4552    238E         600064                AND W0, #0x4, W0  
    4553    2390         E00000                CP0 W0            
    4554    2392         3A0005                BRA NZ, 0x239E    
    4555    2394         8062C0                MOV 0xC58, W0     
    4556    2396         600064                AND W0, #0x4, W0  
    4557    2398         E00000                CP0 W0            
    4558    239A         3A0001                BRA NZ, 0x239E    
    4559    239C         A84C58                BSET 0xC58, #2    
    4560    239E         805F40                MOV 0xBE8, W0     
    4561    23A0         600068                AND W0, #0x8, W0  
    4562    23A2         E00000                CP0 W0            
    4563    23A4         3A0005                BRA NZ, 0x23B0    
    4564    23A6         805F40                MOV 0xBE8, W0     
    4565    23A8         200201                MOV #0x20, W1     
    4566    23AA         600001                AND W0, W1, W0    
    4567    23AC         E00000                CP0 W0            
    4568    23AE         320001                BRA Z, 0x23B2     
    4569    23B0         A902CD                BCLR 0x2CD, #0    
    4570    23B2         FA8000                ULNK              
    4571    23B4         060000                RETURN            
    4572    23B6         FA0000                LNK #0x0          
    4573    23B8         A92080                BCLR INTCON1, #1  
    4574    23BA         A9E401                BCLR 0x401, #7    
    4575    23BC         37FFFF                BRA 0x23BC        
    4576    23BE         FA0000                LNK #0x0          
    4577    23C0         A96080                BCLR INTCON1, #3  
    4578    23C2         A9E401                BCLR 0x401, #7    
    4579    23C4         37FFFF                BRA 0x23C4        
    4580    23C6         FA0000                LNK #0x0          
    4581    23C8         A94080                BCLR INTCON1, #2  
    4582    23CA         A9E401                BCLR 0x401, #7    
    4583    23CC         37FFFF                BRA 0x23CC        
    4584    23CE         FA0000                LNK #0x0          
    4585    23D0         A98080                BCLR INTCON1, #4  
    4586    23D2         A9E401                BCLR 0x401, #7    
    4587    23D4         37FFFF                BRA 0x23D4        
    4588    23D6         FA0000                LNK #0x0          
    4589    23D8         A92080                BCLR INTCON1, #1  
    4590    23DA         37FFFF                BRA 0x23DA        
    4591    23DC         FA0000                LNK #0x0          
    4592    23DE         A96080                BCLR INTCON1, #3  
    4593    23E0         37FFFF                BRA 0x23E0        
    4594    23E2         FA0000                LNK #0x0          
    4595    23E4         A94080                BCLR INTCON1, #2  
    4596    23E6         37FFFF                BRA 0x23E6        
    4597    23E8         FA0000                LNK #0x0          
    4598    23EA         A98080                BCLR INTCON1, #4  
    4599    23EC         37FFFF                BRA 0x23EC        
    4600    23EE         FE0000                RESET             
    4601    23F0         FFFFFF                NOPR              
    4602    23F2         FFFFFF                NOPR              
    4603    23F4         FFFFFF                NOPR              
    4604    23F6         FFFFFF                NOPR              
    4605    23F8         FFFFFF                NOPR              
    4606    23FA         FFFFFF                NOPR              
    4607    23FC         FFFFFF                NOPR              
    4608    23FE         FFFFFF                NOPR              
    4609    2400         FFFFFF                NOPR              
    4610    2402         FFFFFF                NOPR              
    4611    2404         FFFFFF                NOPR              
    4612    2406         FFFFFF                NOPR              
    4613    2408         FFFFFF                NOPR              
    4614    240A         FFFFFF                NOPR              
    4615    240C         FFFFFF                NOPR              
    4616    240E         FFFFFF                NOPR              
    4617    2410         FFFFFF                NOPR              
    4618    2412         FFFFFF                NOPR              
    4619    2414         FFFFFF                NOPR              
    4620    2416         FFFFFF                NOPR              
    4621    2418         FFFFFF                NOPR              
    4622    241A         FFFFFF                NOPR              
    4623    241C         FFFFFF                NOPR              
    4624    241E         FFFFFF                NOPR              
    4625    2420         FFFFFF                NOPR              
    4626    2422         FFFFFF                NOPR              
    4627    2424         FFFFFF                NOPR              
    4628    2426         FFFFFF                NOPR              
    4629    2428         FFFFFF                NOPR              
    4630    242A         FFFFFF                NOPR              
    4631    242C         FFFFFF                NOPR              
    4632    242E         FFFFFF                NOPR              
    4633    2430         FFFFFF                NOPR              
    4634    2432         FFFFFF                NOPR              
    4635    2434         FFFFFF                NOPR              
    4636    2436         FFFFFF                NOPR              
    4637    2438         FFFFFF                NOPR              
    4638    243A         FFFFFF                NOPR              
    4639    243C         FFFFFF                NOPR              
    4640    243E         FFFFFF                NOPR              
    4641    2440         FFFFFF                NOPR              
    4642    2442         FFFFFF                NOPR              
    4643    2444         FFFFFF                NOPR              
    4644    2446         FFFFFF                NOPR              
    4645    2448         FFFFFF                NOPR              
    4646    244A         FFFFFF                NOPR              
    4647    244C         FFFFFF                NOPR              
    4648    244E         FFFFFF                NOPR              
    4649    2450         FFFFFF                NOPR              
    4650    2452         FFFFFF                NOPR              
    4651    2454         FFFFFF                NOPR              
    4652    2456         FFFFFF                NOPR              
    4653    2458         FFFFFF                NOPR              
    4654    245A         FFFFFF                NOPR              
    4655    245C         FFFFFF                NOPR              
    4656    245E         FFFFFF                NOPR              
    4657    2460         FFFFFF                NOPR              
    4658    2462         FFFFFF                NOPR              
    4659    2464         FFFFFF                NOPR              
    4660    2466         FFFFFF                NOPR              
    4661    2468         FFFFFF                NOPR              
    4662    246A         FFFFFF                NOPR              
    4663    246C         FFFFFF                NOPR              
    4664    246E         FFFFFF                NOPR              
    4665    2470         FFFFFF                NOPR              
    4666    2472         FFFFFF                NOPR              
    4667    2474         FFFFFF                NOPR              
    4668    2476         FFFFFF                NOPR              
    4669    2478         FFFFFF                NOPR              
    4670    247A         FFFFFF                NOPR              
    4671    247C         FFFFFF                NOPR              
    4672    247E         FFFFFF                NOPR              
    4673    2480         FFFFFF                NOPR              
    4674    2482         FFFFFF                NOPR              
    4675    2484         FFFFFF                NOPR              
    4676    2486         FFFFFF                NOPR              
    4677    2488         FFFFFF                NOPR              
    4678    248A         FFFFFF                NOPR              
    4679    248C         FFFFFF                NOPR              
    4680    248E         FFFFFF                NOPR              
    4681    2490         FFFFFF                NOPR              
    4682    2492         FFFFFF                NOPR              
    4683    2494         FFFFFF                NOPR              
    4684    2496         FFFFFF                NOPR              
    4685    2498         FFFFFF                NOPR              
    4686    249A         FFFFFF                NOPR              
    4687    249C         FFFFFF                NOPR              
    4688    249E         FFFFFF                NOPR              
    4689    24A0         FFFFFF                NOPR              
    4690    24A2         FFFFFF                NOPR              
    4691    24A4         FFFFFF                NOPR              
    4692    24A6         FFFFFF                NOPR              
    4693    24A8         FFFFFF                NOPR              
    4694    24AA         FFFFFF                NOPR              
    4695    24AC         FFFFFF                NOPR              
    4696    24AE         FFFFFF                NOPR              
    4697    24B0         FFFFFF                NOPR              
    4698    24B2         FFFFFF                NOPR              
    4699    24B4         FFFFFF                NOPR              
    4700    24B6         FFFFFF                NOPR              
    4701    24B8         FFFFFF                NOPR              
    4702    24BA         FFFFFF                NOPR              
    4703    24BC         FFFFFF                NOPR              
    4704    24BE         FFFFFF                NOPR              
    4705    24C0         FFFFFF                NOPR              
    4706    24C2         FFFFFF                NOPR              
    4707    24C4         FFFFFF                NOPR              
    4708    24C6         FFFFFF                NOPR              
    4709    24C8         FFFFFF                NOPR              
    4710    24CA         FFFFFF                NOPR              
    4711    24CC         FFFFFF                NOPR              
    4712    24CE         FFFFFF                NOPR              
    4713    24D0         FFFFFF                NOPR              
    4714    24D2         FFFFFF                NOPR              
    4715    24D4         FFFFFF                NOPR              
    4716    24D6         FFFFFF                NOPR              
    4717    24D8         FFFFFF                NOPR              
    4718    24DA         FFFFFF                NOPR              
    4719    24DC         FFFFFF                NOPR              
    4720    24DE         FFFFFF                NOPR              
    4721    24E0         FFFFFF                NOPR              
    4722    24E2         FFFFFF                NOPR              
    4723    24E4         FFFFFF                NOPR              
    4724    24E6         FFFFFF                NOPR              
    4725    24E8         FFFFFF                NOPR              
    4726    24EA         FFFFFF                NOPR              
    4727    24EC         FFFFFF                NOPR              
    4728    24EE         FFFFFF                NOPR              
    4729    24F0         FFFFFF                NOPR              
    4730    24F2         FFFFFF                NOPR              
    4731    24F4         FFFFFF                NOPR              
    4732    24F6         FFFFFF                NOPR              
    4733    24F8         FFFFFF                NOPR              
    4734    24FA         FFFFFF                NOPR              
    4735    24FC         FFFFFF                NOPR              
    4736    24FE         FFFFFF                NOPR              
    4737    2500         FFFFFF                NOPR              
    4738    2502         FFFFFF                NOPR              
    4739    2504         FFFFFF                NOPR              
    4740    2506         FFFFFF                NOPR              
    4741    2508         FFFFFF                NOPR              
    4742    250A         FFFFFF                NOPR              
    4743    250C         FFFFFF                NOPR              
    4744    250E         FFFFFF                NOPR              
    4745    2510         FFFFFF                NOPR              
    4746    2512         FFFFFF                NOPR              
    4747    2514         FFFFFF                NOPR              
    4748    2516         FFFFFF                NOPR              
    4749    2518         FFFFFF                NOPR              
    4750    251A         FFFFFF                NOPR              
    4751    251C         FFFFFF                NOPR              
    4752    251E         FFFFFF                NOPR              
    4753    2520         FFFFFF                NOPR              
    4754    2522         FFFFFF                NOPR              
    4755    2524         FFFFFF                NOPR              
    4756    2526         FFFFFF                NOPR              
    4757    2528         FFFFFF                NOPR              
    4758    252A         FFFFFF                NOPR              
    4759    252C         FFFFFF                NOPR              
    4760    252E         FFFFFF                NOPR              
    4761    2530         FFFFFF                NOPR              
    4762    2532         FFFFFF                NOPR              
    4763    2534         FFFFFF                NOPR              
    4764    2536         FFFFFF                NOPR              
    4765    2538         FFFFFF                NOPR              
    4766    253A         FFFFFF                NOPR              
    4767    253C         FFFFFF                NOPR              
    4768    253E         FFFFFF                NOPR              
    4769    2540         FFFFFF                NOPR              
    4770    2542         FFFFFF                NOPR              
    4771    2544         FFFFFF                NOPR              
    4772    2546         FFFFFF                NOPR              
    4773    2548         FFFFFF                NOPR              
    4774    254A         FFFFFF                NOPR              
    4775    254C         FFFFFF                NOPR              
    4776    254E         FFFFFF                NOPR              
    4777    2550         FFFFFF                NOPR              
    4778    2552         FFFFFF                NOPR              
    4779    2554         FFFFFF                NOPR              
    4780    2556         FFFFFF                NOPR              
    4781    2558         FFFFFF                NOPR              
    4782    255A         FFFFFF                NOPR              
    4783    255C         FFFFFF                NOPR              
    4784    255E         FFFFFF                NOPR              
    4785    2560         FFFFFF                NOPR              
    4786    2562         FFFFFF                NOPR              
    4787    2564         FFFFFF                NOPR              
    4788    2566         FFFFFF                NOPR              
    4789    2568         FFFFFF                NOPR              
    4790    256A         FFFFFF                NOPR              
    4791    256C         FFFFFF                NOPR              
    4792    256E         FFFFFF                NOPR              
    4793    2570         FFFFFF                NOPR              
    4794    2572         FFFFFF                NOPR              
    4795    2574         FFFFFF                NOPR              
    4796    2576         FFFFFF                NOPR              
    4797    2578         FFFFFF                NOPR              
    4798    257A         FFFFFF                NOPR              
    4799    257C         FFFFFF                NOPR              
    4800    257E         FFFFFF                NOPR              
    4801    2580         FFFFFF                NOPR              
    4802    2582         FFFFFF                NOPR              
    4803    2584         FFFFFF                NOPR              
    4804    2586         FFFFFF                NOPR              
    4805    2588         FFFFFF                NOPR              
    4806    258A         FFFFFF                NOPR              
    4807    258C         FFFFFF                NOPR              
    4808    258E         FFFFFF                NOPR              
    4809    2590         FFFFFF                NOPR              
    4810    2592         FFFFFF                NOPR              
    4811    2594         FFFFFF                NOPR              
    4812    2596         FFFFFF                NOPR              
    4813    2598         FFFFFF                NOPR              
    4814    259A         FFFFFF                NOPR              
    4815    259C         FFFFFF                NOPR              
    4816    259E         FFFFFF                NOPR              
    4817    25A0         FFFFFF                NOPR              
    4818    25A2         FFFFFF                NOPR              
    4819    25A4         FFFFFF                NOPR              
    4820    25A6         FFFFFF                NOPR              
    4821    25A8         FFFFFF                NOPR              
    4822    25AA         FFFFFF                NOPR              
    4823    25AC         FFFFFF                NOPR              
    4824    25AE         FFFFFF                NOPR              
    4825    25B0         FFFFFF                NOPR              
    4826    25B2         FFFFFF                NOPR              
    4827    25B4         FFFFFF                NOPR              
    4828    25B6         FFFFFF                NOPR              
    4829    25B8         FFFFFF                NOPR              
    4830    25BA         FFFFFF                NOPR              
    4831    25BC         FFFFFF                NOPR              
    4832    25BE         FFFFFF                NOPR              
    4833    25C0         FFFFFF                NOPR              
    4834    25C2         FFFFFF                NOPR              
    4835    25C4         FFFFFF                NOPR              
    4836    25C6         FFFFFF                NOPR              
    4837    25C8         FFFFFF                NOPR              
    4838    25CA         FFFFFF                NOPR              
    4839    25CC         FFFFFF                NOPR              
    4840    25CE         FFFFFF                NOPR              
    4841    25D0         FFFFFF                NOPR              
    4842    25D2         FFFFFF                NOPR              
    4843    25D4         FFFFFF                NOPR              
    4844    25D6         FFFFFF                NOPR              
    4845    25D8         FFFFFF                NOPR              
    4846    25DA         FFFFFF                NOPR              
    4847    25DC         FFFFFF                NOPR              
    4848    25DE         FFFFFF                NOPR              
    4849    25E0         FFFFFF                NOPR              
    4850    25E2         FFFFFF                NOPR              
    4851    25E4         FFFFFF                NOPR              
    4852    25E6         FFFFFF                NOPR              
    4853    25E8         FFFFFF                NOPR              
    4854    25EA         FFFFFF                NOPR              
    4855    25EC         FFFFFF                NOPR              
    4856    25EE         FFFFFF                NOPR              
    4857    25F0         FFFFFF                NOPR              
    4858    25F2         FFFFFF                NOPR              
    4859    25F4         FFFFFF                NOPR              
    4860    25F6         FFFFFF                NOPR              
    4861    25F8         FFFFFF                NOPR              
    4862    25FA         FFFFFF                NOPR              
    4863    25FC         FFFFFF                NOPR              
    4864    25FE         FFFFFF                NOPR              
    4865    2600         FFFFFF                NOPR              
    4866    2602         FFFFFF                NOPR              
    4867    2604         FFFFFF                NOPR              
    4868    2606         FFFFFF                NOPR              
    4869    2608         FFFFFF                NOPR              
    4870    260A         FFFFFF                NOPR              
    4871    260C         FFFFFF                NOPR              
    4872    260E         FFFFFF                NOPR              
    4873    2610         FFFFFF                NOPR              
    4874    2612         FFFFFF                NOPR              
    4875    2614         FFFFFF                NOPR              
    4876    2616         FFFFFF                NOPR              
    4877    2618         FFFFFF                NOPR              
    4878    261A         FFFFFF                NOPR              
    4879    261C         FFFFFF                NOPR              
    4880    261E         FFFFFF                NOPR              
    4881    2620         FFFFFF                NOPR              
    4882    2622         FFFFFF                NOPR              
    4883    2624         FFFFFF                NOPR              
    4884    2626         FFFFFF                NOPR              
    4885    2628         FFFFFF                NOPR              
    4886    262A         FFFFFF                NOPR              
    4887    262C         FFFFFF                NOPR              
    4888    262E         FFFFFF                NOPR              
    4889    2630         FFFFFF                NOPR              
    4890    2632         FFFFFF                NOPR              
    4891    2634         FFFFFF                NOPR              
    4892    2636         FFFFFF                NOPR              
    4893    2638         FFFFFF                NOPR              
    4894    263A         FFFFFF                NOPR              
    4895    263C         FFFFFF                NOPR              
    4896    263E         FFFFFF                NOPR              
    4897    2640         FFFFFF                NOPR              
    4898    2642         FFFFFF                NOPR              
    4899    2644         FFFFFF                NOPR              
    4900    2646         FFFFFF                NOPR              
    4901    2648         FFFFFF                NOPR              
    4902    264A         FFFFFF                NOPR              
    4903    264C         FFFFFF                NOPR              
    4904    264E         FFFFFF                NOPR              
    4905    2650         FFFFFF                NOPR              
    4906    2652         FFFFFF                NOPR              
    4907    2654         FFFFFF                NOPR              
    4908    2656         FFFFFF                NOPR              
    4909    2658         FFFFFF                NOPR              
    4910    265A         FFFFFF                NOPR              
    4911    265C         FFFFFF                NOPR              
    4912    265E         FFFFFF                NOPR              
    4913    2660         FFFFFF                NOPR              
    4914    2662         FFFFFF                NOPR              
    4915    2664         FFFFFF                NOPR              
    4916    2666         FFFFFF                NOPR              
    4917    2668         FFFFFF                NOPR              
    4918    266A         FFFFFF                NOPR              
    4919    266C         FFFFFF                NOPR              
    4920    266E         FFFFFF                NOPR              
    4921    2670         FFFFFF                NOPR              
    4922    2672         FFFFFF                NOPR              
    4923    2674         FFFFFF                NOPR              
    4924    2676         FFFFFF                NOPR              
    4925    2678         FFFFFF                NOPR              
    4926    267A         FFFFFF                NOPR              
    4927    267C         FFFFFF                NOPR              
    4928    267E         FFFFFF                NOPR              
    4929    2680         FFFFFF                NOPR              
    4930    2682         FFFFFF                NOPR              
    4931    2684         FFFFFF                NOPR              
    4932    2686         FFFFFF                NOPR              
    4933    2688         FFFFFF                NOPR              
    4934    268A         FFFFFF                NOPR              
    4935    268C         FFFFFF                NOPR              
    4936    268E         FFFFFF                NOPR              
    4937    2690         FFFFFF                NOPR              
    4938    2692         FFFFFF                NOPR              
    4939    2694         FFFFFF                NOPR              
    4940    2696         FFFFFF                NOPR              
    4941    2698         FFFFFF                NOPR              
    4942    269A         FFFFFF                NOPR              
    4943    269C         FFFFFF                NOPR              
    4944    269E         FFFFFF                NOPR              
    4945    26A0         FFFFFF                NOPR              
    4946    26A2         FFFFFF                NOPR              
    4947    26A4         FFFFFF                NOPR              
    4948    26A6         FFFFFF                NOPR              
    4949    26A8         FFFFFF                NOPR              
    4950    26AA         FFFFFF                NOPR              
    4951    26AC         FFFFFF                NOPR              
    4952    26AE         FFFFFF                NOPR              
    4953    26B0         FFFFFF                NOPR              
    4954    26B2         FFFFFF                NOPR              
    4955    26B4         FFFFFF                NOPR              
    4956    26B6         FFFFFF                NOPR              
    4957    26B8         FFFFFF                NOPR              
    4958    26BA         FFFFFF                NOPR              
    4959    26BC         FFFFFF                NOPR              
    4960    26BE         FFFFFF                NOPR              
    4961    26C0         FFFFFF                NOPR              
    4962    26C2         FFFFFF                NOPR              
    4963    26C4         FFFFFF                NOPR              
    4964    26C6         FFFFFF                NOPR              
    4965    26C8         FFFFFF                NOPR              
    4966    26CA         FFFFFF                NOPR              
    4967    26CC         FFFFFF                NOPR              
    4968    26CE         FFFFFF                NOPR              
    4969    26D0         FFFFFF                NOPR              
    4970    26D2         FFFFFF                NOPR              
    4971    26D4         FFFFFF                NOPR              
    4972    26D6         FFFFFF                NOPR              
    4973    26D8         FFFFFF                NOPR              
    4974    26DA         FFFFFF                NOPR              
    4975    26DC         FFFFFF                NOPR              
    4976    26DE         FFFFFF                NOPR              
    4977    26E0         FFFFFF                NOPR              
    4978    26E2         FFFFFF                NOPR              
    4979    26E4         FFFFFF                NOPR              
    4980    26E6         FFFFFF                NOPR              
    4981    26E8         FFFFFF                NOPR              
    4982    26EA         FFFFFF                NOPR              
    4983    26EC         FFFFFF                NOPR              
    4984    26EE         FFFFFF                NOPR              
    4985    26F0         FFFFFF                NOPR              
    4986    26F2         FFFFFF                NOPR              
    4987    26F4         FFFFFF                NOPR              
    4988    26F6         FFFFFF                NOPR              
    4989    26F8         FFFFFF                NOPR              
    4990    26FA         FFFFFF                NOPR              
    4991    26FC         FFFFFF                NOPR              
    4992    26FE         FFFFFF                NOPR              
    4993    2700         FFFFFF                NOPR              
    4994    2702         FFFFFF                NOPR              
    4995    2704         FFFFFF                NOPR              
    4996    2706         FFFFFF                NOPR              
    4997    2708         FFFFFF                NOPR              
    4998    270A         FFFFFF                NOPR              
    4999    270C         FFFFFF                NOPR              
    5000    270E         FFFFFF                NOPR              
    5001    2710         FFFFFF                NOPR              
    5002    2712         FFFFFF                NOPR              
    5003    2714         FFFFFF                NOPR              
    5004    2716         FFFFFF                NOPR              
    5005    2718         FFFFFF                NOPR              
    5006    271A         FFFFFF                NOPR              
    5007    271C         FFFFFF                NOPR              
    5008    271E         FFFFFF                NOPR              
    5009    2720         FFFFFF                NOPR              
    5010    2722         FFFFFF                NOPR              
    5011    2724         FFFFFF                NOPR              
    5012    2726         FFFFFF                NOPR              
    5013    2728         FFFFFF                NOPR              
    5014    272A         FFFFFF                NOPR              
    5015    272C         FFFFFF                NOPR              
    5016    272E         FFFFFF                NOPR              
    5017    2730         FFFFFF                NOPR              
    5018    2732         FFFFFF                NOPR              
    5019    2734         FFFFFF                NOPR              
    5020    2736         FFFFFF                NOPR              
    5021    2738         FFFFFF                NOPR              
    5022    273A         FFFFFF                NOPR              
    5023    273C         FFFFFF                NOPR              
    5024    273E         FFFFFF                NOPR              
    5025    2740         FFFFFF                NOPR              
    5026    2742         FFFFFF                NOPR              
    5027    2744         FFFFFF                NOPR              
    5028    2746         FFFFFF                NOPR              
    5029    2748         FFFFFF                NOPR              
    5030    274A         FFFFFF                NOPR              
    5031    274C         FFFFFF                NOPR              
    5032    274E         FFFFFF                NOPR              
    5033    2750         FFFFFF                NOPR              
    5034    2752         FFFFFF                NOPR              
    5035    2754         FFFFFF                NOPR              
    5036    2756         FFFFFF                NOPR              
    5037    2758         FFFFFF                NOPR              
    5038    275A         FFFFFF                NOPR              
    5039    275C         FFFFFF                NOPR              
    5040    275E         FFFFFF                NOPR              
    5041    2760         FFFFFF                NOPR              
    5042    2762         FFFFFF                NOPR              
    5043    2764         FFFFFF                NOPR              
    5044    2766         FFFFFF                NOPR              
    5045    2768         FFFFFF                NOPR              
    5046    276A         FFFFFF                NOPR              
    5047    276C         FFFFFF                NOPR              
    5048    276E         FFFFFF                NOPR              
    5049    2770         FFFFFF                NOPR              
    5050    2772         FFFFFF                NOPR              
    5051    2774         FFFFFF                NOPR              
    5052    2776         FFFFFF                NOPR              
    5053    2778         FFFFFF                NOPR              
    5054    277A         FFFFFF                NOPR              
    5055    277C         FFFFFF                NOPR              
    5056    277E         FFFFFF                NOPR              
    5057    2780         FFFFFF                NOPR              
    5058    2782         FFFFFF                NOPR              
    5059    2784         FFFFFF                NOPR              
    5060    2786         FFFFFF                NOPR              
    5061    2788         FFFFFF                NOPR              
    5062    278A         FFFFFF                NOPR              
    5063    278C         FFFFFF                NOPR              
    5064    278E         FFFFFF                NOPR              
    5065    2790         FFFFFF                NOPR              
    5066    2792         FFFFFF                NOPR              
    5067    2794         FFFFFF                NOPR              
    5068    2796         FFFFFF                NOPR              
    5069    2798         FFFFFF                NOPR              
    5070    279A         FFFFFF                NOPR              
    5071    279C         FFFFFF                NOPR              
    5072    279E         FFFFFF                NOPR              
    5073    27A0         FFFFFF                NOPR              
    5074    27A2         FFFFFF                NOPR              
    5075    27A4         FFFFFF                NOPR              
    5076    27A6         FFFFFF                NOPR              
    5077    27A8         FFFFFF                NOPR              
    5078    27AA         FFFFFF                NOPR              
    5079    27AC         FFFFFF                NOPR              
    5080    27AE         FFFFFF                NOPR              
    5081    27B0         FFFFFF                NOPR              
    5082    27B2         FFFFFF                NOPR              
    5083    27B4         FFFFFF                NOPR              
    5084    27B6         FFFFFF                NOPR              
    5085    27B8         FFFFFF                NOPR              
    5086    27BA         FFFFFF                NOPR              
    5087    27BC         FFFFFF                NOPR              
    5088    27BE         FFFFFF                NOPR              
    5089    27C0         FFFFFF                NOPR              
    5090    27C2         FFFFFF                NOPR              
    5091    27C4         FFFFFF                NOPR              
    5092    27C6         FFFFFF                NOPR              
    5093    27C8         FFFFFF                NOPR              
    5094    27CA         FFFFFF                NOPR              
    5095    27CC         FFFFFF                NOPR              
    5096    27CE         FFFFFF                NOPR              
    5097    27D0         FFFFFF                NOPR              
    5098    27D2         FFFFFF                NOPR              
    5099    27D4         FFFFFF                NOPR              
    5100    27D6         FFFFFF                NOPR              
    5101    27D8         FFFFFF                NOPR              
    5102    27DA         FFFFFF                NOPR              
    5103    27DC         FFFFFF                NOPR              
    5104    27DE         FFFFFF                NOPR              
    5105    27E0         FFFFFF                NOPR              
    5106    27E2         FFFFFF                NOPR              
    5107    27E4         FFFFFF                NOPR              
    5108    27E6         FFFFFF                NOPR              
    5109    27E8         FFFFFF                NOPR              
    5110    27EA         FFFFFF                NOPR              
    5111    27EC         FFFFFF                NOPR              
    5112    27EE         FFFFFF                NOPR              
    5113    27F0         FFFFFF                NOPR              
    5114    27F2         FFFFFF                NOPR              
    5115    27F4         FFFFFF                NOPR              
    5116    27F6         FFFFFF                NOPR              
    5117    27F8         FFFFFF                NOPR              
    5118    27FA         FFFFFF                NOPR              
    5119    27FC         FFFFFF                NOPR              
    5120    27FE         FFFFFF                NOPR              
    5121    2800         FFFFFF                NOPR              
    5122    2802         FFFFFF                NOPR              
    5123    2804         FFFFFF                NOPR              
    5124    2806         FFFFFF                NOPR              
    5125    2808         FFFFFF                NOPR              
    5126    280A         FFFFFF                NOPR              
    5127    280C         FFFFFF                NOPR              
    5128    280E         FFFFFF                NOPR              
    5129    2810         FFFFFF                NOPR              
    5130    2812         FFFFFF                NOPR              
    5131    2814         FFFFFF                NOPR              
    5132    2816         FFFFFF                NOPR              
    5133    2818         FFFFFF                NOPR              
    5134    281A         FFFFFF                NOPR              
    5135    281C         FFFFFF                NOPR              
    5136    281E         FFFFFF                NOPR              
    5137    2820         FFFFFF                NOPR              
    5138    2822         FFFFFF                NOPR              
    5139    2824         FFFFFF                NOPR              
    5140    2826         FFFFFF                NOPR              
    5141    2828         FFFFFF                NOPR              
    5142    282A         FFFFFF                NOPR              
    5143    282C         FFFFFF                NOPR              
    5144    282E         FFFFFF                NOPR              
    5145    2830         FFFFFF                NOPR              
    5146    2832         FFFFFF                NOPR              
    5147    2834         FFFFFF                NOPR              
    5148    2836         FFFFFF                NOPR              
    5149    2838         FFFFFF                NOPR              
    5150    283A         FFFFFF                NOPR              
    5151    283C         FFFFFF                NOPR              
    5152    283E         FFFFFF                NOPR              
    5153    2840         FFFFFF                NOPR              
    5154    2842         FFFFFF                NOPR              
    5155    2844         FFFFFF                NOPR              
    5156    2846         FFFFFF                NOPR              
    5157    2848         FFFFFF                NOPR              
    5158    284A         FFFFFF                NOPR              
    5159    284C         FFFFFF                NOPR              
    5160    284E         FFFFFF                NOPR              
    5161    2850         FFFFFF                NOPR              
    5162    2852         FFFFFF                NOPR              
    5163    2854         FFFFFF                NOPR              
    5164    2856         FFFFFF                NOPR              
    5165    2858         FFFFFF                NOPR              
    5166    285A         FFFFFF                NOPR              
    5167    285C         FFFFFF                NOPR              
    5168    285E         FFFFFF                NOPR              
    5169    2860         FFFFFF                NOPR              
    5170    2862         FFFFFF                NOPR              
    5171    2864         FFFFFF                NOPR              
    5172    2866         FFFFFF                NOPR              
    5173    2868         FFFFFF                NOPR              
    5174    286A         FFFFFF                NOPR              
    5175    286C         FFFFFF                NOPR              
    5176    286E         FFFFFF                NOPR              
    5177    2870         FFFFFF                NOPR              
    5178    2872         FFFFFF                NOPR              
    5179    2874         FFFFFF                NOPR              
    5180    2876         FFFFFF                NOPR              
    5181    2878         FFFFFF                NOPR              
    5182    287A         FFFFFF                NOPR              
    5183    287C         FFFFFF                NOPR              
    5184    287E         FFFFFF                NOPR              
    5185    2880         FFFFFF                NOPR              
    5186    2882         FFFFFF                NOPR              
    5187    2884         FFFFFF                NOPR              
    5188    2886         FFFFFF                NOPR              
    5189    2888         FFFFFF                NOPR              
    5190    288A         FFFFFF                NOPR              
    5191    288C         FFFFFF                NOPR              
    5192    288E         FFFFFF                NOPR              
    5193    2890         FFFFFF                NOPR              
    5194    2892         FFFFFF                NOPR              
    5195    2894         FFFFFF                NOPR              
    5196    2896         FFFFFF                NOPR              
    5197    2898         FFFFFF                NOPR              
    5198    289A         FFFFFF                NOPR              
    5199    289C         FFFFFF                NOPR              
    5200    289E         FFFFFF                NOPR              
    5201    28A0         FFFFFF                NOPR              
    5202    28A2         FFFFFF                NOPR              
    5203    28A4         FFFFFF                NOPR              
    5204    28A6         FFFFFF                NOPR              
    5205    28A8         FFFFFF                NOPR              
    5206    28AA         FFFFFF                NOPR              
    5207    28AC         FFFFFF                NOPR              
    5208    28AE         FFFFFF                NOPR              
    5209    28B0         FFFFFF                NOPR              
    5210    28B2         FFFFFF                NOPR              
    5211    28B4         FFFFFF                NOPR              
    5212    28B6         FFFFFF                NOPR              
    5213    28B8         FFFFFF                NOPR              
    5214    28BA         FFFFFF                NOPR              
    5215    28BC         FFFFFF                NOPR              
    5216    28BE         FFFFFF                NOPR              
    5217    28C0         FFFFFF                NOPR              
    5218    28C2         FFFFFF                NOPR              
    5219    28C4         FFFFFF                NOPR              
    5220    28C6         FFFFFF                NOPR              
    5221    28C8         FFFFFF                NOPR              
    5222    28CA         FFFFFF                NOPR              
    5223    28CC         FFFFFF                NOPR              
    5224    28CE         FFFFFF                NOPR              
    5225    28D0         FFFFFF                NOPR              
    5226    28D2         FFFFFF                NOPR              
    5227    28D4         FFFFFF                NOPR              
    5228    28D6         FFFFFF                NOPR              
    5229    28D8         FFFFFF                NOPR              
    5230    28DA         FFFFFF                NOPR              
    5231    28DC         FFFFFF                NOPR              
    5232    28DE         FFFFFF                NOPR              
    5233    28E0         FFFFFF                NOPR              
    5234    28E2         FFFFFF                NOPR              
    5235    28E4         FFFFFF                NOPR              
    5236    28E6         FFFFFF                NOPR              
    5237    28E8         FFFFFF                NOPR              
    5238    28EA         FFFFFF                NOPR              
    5239    28EC         FFFFFF                NOPR              
    5240    28EE         FFFFFF                NOPR              
    5241    28F0         FFFFFF                NOPR              
    5242    28F2         FFFFFF                NOPR              
    5243    28F4         FFFFFF                NOPR              
    5244    28F6         FFFFFF                NOPR              
    5245    28F8         FFFFFF                NOPR              
    5246    28FA         FFFFFF                NOPR              
    5247    28FC         FFFFFF                NOPR              
    5248    28FE         FFFFFF                NOPR              
    5249    2900         FFFFFF                NOPR              
    5250    2902         FFFFFF                NOPR              
    5251    2904         FFFFFF                NOPR              
    5252    2906         FFFFFF                NOPR              
    5253    2908         FFFFFF                NOPR              
    5254    290A         FFFFFF                NOPR              
    5255    290C         FFFFFF                NOPR              
    5256    290E         FFFFFF                NOPR              
    5257    2910         FFFFFF                NOPR              
    5258    2912         FFFFFF                NOPR              
    5259    2914         FFFFFF                NOPR              
    5260    2916         FFFFFF                NOPR              
    5261    2918         FFFFFF                NOPR              
    5262    291A         FFFFFF                NOPR              
    5263    291C         FFFFFF                NOPR              
    5264    291E         FFFFFF                NOPR              
    5265    2920         FFFFFF                NOPR              
    5266    2922         FFFFFF                NOPR              
    5267    2924         FFFFFF                NOPR              
    5268    2926         FFFFFF                NOPR              
    5269    2928         FFFFFF                NOPR              
    5270    292A         FFFFFF                NOPR              
    5271    292C         FFFFFF                NOPR              
    5272    292E         FFFFFF                NOPR              
    5273    2930         FFFFFF                NOPR              
    5274    2932         FFFFFF                NOPR              
    5275    2934         FFFFFF                NOPR              
    5276    2936         FFFFFF                NOPR              
    5277    2938         FFFFFF                NOPR              
    5278    293A         FFFFFF                NOPR              
    5279    293C         FFFFFF                NOPR              
    5280    293E         FFFFFF                NOPR              
    5281    2940         FFFFFF                NOPR              
    5282    2942         FFFFFF                NOPR              
    5283    2944         FFFFFF                NOPR              
    5284    2946         FFFFFF                NOPR              
    5285    2948         FFFFFF                NOPR              
    5286    294A         FFFFFF                NOPR              
    5287    294C         FFFFFF                NOPR              
    5288    294E         FFFFFF                NOPR              
    5289    2950         FFFFFF                NOPR              
    5290    2952         FFFFFF                NOPR              
    5291    2954         FFFFFF                NOPR              
    5292    2956         FFFFFF                NOPR              
    5293    2958         FFFFFF                NOPR              
    5294    295A         FFFFFF                NOPR              
    5295    295C         FFFFFF                NOPR              
    5296    295E         FFFFFF                NOPR              
    5297    2960         FFFFFF                NOPR              
    5298    2962         FFFFFF                NOPR              
    5299    2964         FFFFFF                NOPR              
    5300    2966         FFFFFF                NOPR              
    5301    2968         FFFFFF                NOPR              
    5302    296A         FFFFFF                NOPR              
    5303    296C         FFFFFF                NOPR              
    5304    296E         FFFFFF                NOPR              
    5305    2970         FFFFFF                NOPR              
    5306    2972         FFFFFF                NOPR              
    5307    2974         FFFFFF                NOPR              
    5308    2976         FFFFFF                NOPR              
    5309    2978         FFFFFF                NOPR              
    5310    297A         FFFFFF                NOPR              
    5311    297C         FFFFFF                NOPR              
    5312    297E         FFFFFF                NOPR              
    5313    2980         FFFFFF                NOPR              
    5314    2982         FFFFFF                NOPR              
    5315    2984         FFFFFF                NOPR              
    5316    2986         FFFFFF                NOPR              
    5317    2988         FFFFFF                NOPR              
    5318    298A         FFFFFF                NOPR              
    5319    298C         FFFFFF                NOPR              
    5320    298E         FFFFFF                NOPR              
    5321    2990         FFFFFF                NOPR              
    5322    2992         FFFFFF                NOPR              
    5323    2994         FFFFFF                NOPR              
    5324    2996         FFFFFF                NOPR              
    5325    2998         FFFFFF                NOPR              
    5326    299A         FFFFFF                NOPR              
    5327    299C         FFFFFF                NOPR              
    5328    299E         FFFFFF                NOPR              
    5329    29A0         FFFFFF                NOPR              
    5330    29A2         FFFFFF                NOPR              
    5331    29A4         FFFFFF                NOPR              
    5332    29A6         FFFFFF                NOPR              
    5333    29A8         FFFFFF                NOPR              
    5334    29AA         FFFFFF                NOPR              
    5335    29AC         FFFFFF                NOPR              
    5336    29AE         FFFFFF                NOPR              
    5337    29B0         FFFFFF                NOPR              
    5338    29B2         FFFFFF                NOPR              
    5339    29B4         FFFFFF                NOPR              
    5340    29B6         FFFFFF                NOPR              
    5341    29B8         FFFFFF                NOPR              
    5342    29BA         FFFFFF                NOPR              
    5343    29BC         FFFFFF                NOPR              
    5344    29BE         FFFFFF                NOPR              
    5345    29C0         FFFFFF                NOPR              
    5346    29C2         FFFFFF                NOPR              
    5347    29C4         FFFFFF                NOPR              
    5348    29C6         FFFFFF                NOPR              
    5349    29C8         FFFFFF                NOPR              
    5350    29CA         FFFFFF                NOPR              
    5351    29CC         FFFFFF                NOPR              
    5352    29CE         FFFFFF                NOPR              
    5353    29D0         FFFFFF                NOPR              
    5354    29D2         FFFFFF                NOPR              
    5355    29D4         FFFFFF                NOPR              
    5356    29D6         FFFFFF                NOPR              
    5357    29D8         FFFFFF                NOPR              
    5358    29DA         FFFFFF                NOPR              
    5359    29DC         FFFFFF                NOPR              
    5360    29DE         FFFFFF                NOPR              
    5361    29E0         FFFFFF                NOPR              
    5362    29E2         FFFFFF                NOPR              
    5363    29E4         FFFFFF                NOPR              
    5364    29E6         FFFFFF                NOPR              
    5365    29E8         FFFFFF                NOPR              
    5366    29EA         FFFFFF                NOPR              
    5367    29EC         FFFFFF                NOPR              
    5368    29EE         FFFFFF                NOPR              
    5369    29F0         FFFFFF                NOPR              
    5370    29F2         FFFFFF                NOPR              
    5371    29F4         FFFFFF                NOPR              
    5372    29F6         FFFFFF                NOPR              
    5373    29F8         FFFFFF                NOPR              
    5374    29FA         FFFFFF                NOPR              
    5375    29FC         FFFFFF                NOPR              
    5376    29FE         FFFFFF                NOPR              
    5377    2A00         FFFFFF                NOPR              
    5378    2A02         FFFFFF                NOPR              
    5379    2A04         FFFFFF                NOPR              
    5380    2A06         FFFFFF                NOPR              
    5381    2A08         FFFFFF                NOPR              
    5382    2A0A         FFFFFF                NOPR              
    5383    2A0C         FFFFFF                NOPR              
    5384    2A0E         FFFFFF                NOPR              
    5385    2A10         FFFFFF                NOPR              
    5386    2A12         FFFFFF                NOPR              
    5387    2A14         FFFFFF                NOPR              
    5388    2A16         FFFFFF                NOPR              
    5389    2A18         FFFFFF                NOPR              
    5390    2A1A         FFFFFF                NOPR              
    5391    2A1C         FFFFFF                NOPR              
    5392    2A1E         FFFFFF                NOPR              
    5393    2A20         FFFFFF                NOPR              
    5394    2A22         FFFFFF                NOPR              
    5395    2A24         FFFFFF                NOPR              
    5396    2A26         FFFFFF                NOPR              
    5397    2A28         FFFFFF                NOPR              
    5398    2A2A         FFFFFF                NOPR              
    5399    2A2C         FFFFFF                NOPR              
    5400    2A2E         FFFFFF                NOPR              
    5401    2A30         FFFFFF                NOPR              
    5402    2A32         FFFFFF                NOPR              
    5403    2A34         FFFFFF                NOPR              
    5404    2A36         FFFFFF                NOPR              
    5405    2A38         FFFFFF                NOPR              
    5406    2A3A         FFFFFF                NOPR              
    5407    2A3C         FFFFFF                NOPR              
    5408    2A3E         FFFFFF                NOPR              
    5409    2A40         FFFFFF                NOPR              
    5410    2A42         FFFFFF                NOPR              
    5411    2A44         FFFFFF                NOPR              
    5412    2A46         FFFFFF                NOPR              
    5413    2A48         FFFFFF                NOPR              
    5414    2A4A         FFFFFF                NOPR              
    5415    2A4C         FFFFFF                NOPR              
    5416    2A4E         FFFFFF                NOPR              
    5417    2A50         FFFFFF                NOPR              
    5418    2A52         FFFFFF                NOPR              
    5419    2A54         FFFFFF                NOPR              
    5420    2A56         FFFFFF                NOPR              
    5421    2A58         FFFFFF                NOPR              
    5422    2A5A         FFFFFF                NOPR              
    5423    2A5C         FFFFFF                NOPR              
    5424    2A5E         FFFFFF                NOPR              
    5425    2A60         FFFFFF                NOPR              
    5426    2A62         FFFFFF                NOPR              
    5427    2A64         FFFFFF                NOPR              
    5428    2A66         FFFFFF                NOPR              
    5429    2A68         FFFFFF                NOPR              
    5430    2A6A         FFFFFF                NOPR              
    5431    2A6C         FFFFFF                NOPR              
    5432    2A6E         FFFFFF                NOPR              
    5433    2A70         FFFFFF                NOPR              
    5434    2A72         FFFFFF                NOPR              
    5435    2A74         FFFFFF                NOPR              
    5436    2A76         FFFFFF                NOPR              
    5437    2A78         FFFFFF                NOPR              
    5438    2A7A         FFFFFF                NOPR              
    5439    2A7C         FFFFFF                NOPR              
    5440    2A7E         FFFFFF                NOPR              
    5441    2A80         FFFFFF                NOPR              
    5442    2A82         FFFFFF                NOPR              
    5443    2A84         FFFFFF                NOPR              
    5444    2A86         FFFFFF                NOPR              
    5445    2A88         FFFFFF                NOPR              
    5446    2A8A         FFFFFF                NOPR              
    5447    2A8C         FFFFFF                NOPR              
    5448    2A8E         FFFFFF                NOPR              
    5449    2A90         FFFFFF                NOPR              
    5450    2A92         FFFFFF                NOPR              
    5451    2A94         FFFFFF                NOPR              
    5452    2A96         FFFFFF                NOPR              
    5453    2A98         FFFFFF                NOPR              
    5454    2A9A         FFFFFF                NOPR              
    5455    2A9C         FFFFFF                NOPR              
    5456    2A9E         FFFFFF                NOPR              
    5457    2AA0         FFFFFF                NOPR              
    5458    2AA2         FFFFFF                NOPR              
    5459    2AA4         FFFFFF                NOPR              
    5460    2AA6         FFFFFF                NOPR              
    5461    2AA8         FFFFFF                NOPR              
    5462    2AAA         FFFFFF                NOPR              
    5463    2AAC         FFFFFF                NOPR              
    5464    2AAE         FFFFFF                NOPR              
    5465    2AB0         FFFFFF                NOPR              
    5466    2AB2         FFFFFF                NOPR              
    5467    2AB4         FFFFFF                NOPR              
    5468    2AB6         FFFFFF                NOPR              
    5469    2AB8         FFFFFF                NOPR              
    5470    2ABA         FFFFFF                NOPR              
    5471    2ABC         FFFFFF                NOPR              
    5472    2ABE         FFFFFF                NOPR              
    5473    2AC0         FFFFFF                NOPR              
    5474    2AC2         FFFFFF                NOPR              
    5475    2AC4         FFFFFF                NOPR              
    5476    2AC6         FFFFFF                NOPR              
    5477    2AC8         FFFFFF                NOPR              
    5478    2ACA         FFFFFF                NOPR              
    5479    2ACC         FFFFFF                NOPR              
    5480    2ACE         FFFFFF                NOPR              
    5481    2AD0         FFFFFF                NOPR              
    5482    2AD2         FFFFFF                NOPR              
    5483    2AD4         FFFFFF                NOPR              
    5484    2AD6         FFFFFF                NOPR              
    5485    2AD8         FFFFFF                NOPR              
    5486    2ADA         FFFFFF                NOPR              
    5487    2ADC         FFFFFF                NOPR              
    5488    2ADE         FFFFFF                NOPR              
    5489    2AE0         FFFFFF                NOPR              
    5490    2AE2         FFFFFF                NOPR              
    5491    2AE4         FFFFFF                NOPR              
    5492    2AE6         FFFFFF                NOPR              
    5493    2AE8         FFFFFF                NOPR              
    5494    2AEA         FFFFFF                NOPR              
    5495    2AEC         FFFFFF                NOPR              
    5496    2AEE         FFFFFF                NOPR              
    5497    2AF0         FFFFFF                NOPR              
    5498    2AF2         FFFFFF                NOPR              
    5499    2AF4         FFFFFF                NOPR              
    5500    2AF6         FFFFFF                NOPR              
    5501    2AF8         FFFFFF                NOPR              
    5502    2AFA         FFFFFF                NOPR              
    5503    2AFC         FFFFFF                NOPR              
    5504    2AFE         FFFFFF                NOPR              
    5505    2B00         FFFFFF                NOPR              
    5506    2B02         FFFFFF                NOPR              
    5507    2B04         FFFFFF                NOPR              
    5508    2B06         FFFFFF                NOPR              
    5509    2B08         FFFFFF                NOPR              
    5510    2B0A         FFFFFF                NOPR              
    5511    2B0C         FFFFFF                NOPR              
    5512    2B0E         FFFFFF                NOPR              
    5513    2B10         FFFFFF                NOPR              
    5514    2B12         FFFFFF                NOPR              
    5515    2B14         FFFFFF                NOPR              
    5516    2B16         FFFFFF                NOPR              
    5517    2B18         FFFFFF                NOPR              
    5518    2B1A         FFFFFF                NOPR              
    5519    2B1C         FFFFFF                NOPR              
    5520    2B1E         FFFFFF                NOPR              
    5521    2B20         FFFFFF                NOPR              
    5522    2B22         FFFFFF                NOPR              
    5523    2B24         FFFFFF                NOPR              
    5524    2B26         FFFFFF                NOPR              
    5525    2B28         FFFFFF                NOPR              
    5526    2B2A         FFFFFF                NOPR              
    5527    2B2C         FFFFFF                NOPR              
    5528    2B2E         FFFFFF                NOPR              
    5529    2B30         FFFFFF                NOPR              
    5530    2B32         FFFFFF                NOPR              
    5531    2B34         FFFFFF                NOPR              
    5532    2B36         FFFFFF                NOPR              
    5533    2B38         FFFFFF                NOPR              
    5534    2B3A         FFFFFF                NOPR              
    5535    2B3C         FFFFFF                NOPR              
    5536    2B3E         FFFFFF                NOPR              
    5537    2B40         FFFFFF                NOPR              
    5538    2B42         FFFFFF                NOPR              
    5539    2B44         FFFFFF                NOPR              
    5540    2B46         FFFFFF                NOPR              
    5541    2B48         FFFFFF                NOPR              
    5542    2B4A         FFFFFF                NOPR              
    5543    2B4C         FFFFFF                NOPR              
    5544    2B4E         FFFFFF                NOPR              
    5545    2B50         FFFFFF                NOPR              
    5546    2B52         FFFFFF                NOPR              
    5547    2B54         FFFFFF                NOPR              
    5548    2B56         FFFFFF                NOPR              
    5549    2B58         FFFFFF                NOPR              
    5550    2B5A         FFFFFF                NOPR              
    5551    2B5C         FFFFFF                NOPR              
    5552    2B5E         FFFFFF                NOPR              
    5553    2B60         FFFFFF                NOPR              
    5554    2B62         FFFFFF                NOPR              
    5555    2B64         FFFFFF                NOPR              
    5556    2B66         FFFFFF                NOPR              
    5557    2B68         FFFFFF                NOPR              
    5558    2B6A         FFFFFF                NOPR              
    5559    2B6C         FFFFFF                NOPR              
    5560    2B6E         FFFFFF                NOPR              
    5561    2B70         FFFFFF                NOPR              
    5562    2B72         FFFFFF                NOPR              
    5563    2B74         FFFFFF                NOPR              
    5564    2B76         FFFFFF                NOPR              
    5565    2B78         FFFFFF                NOPR              
    5566    2B7A         FFFFFF                NOPR              
    5567    2B7C         FFFFFF                NOPR              
    5568    2B7E         FFFFFF                NOPR              
    5569    2B80         FFFFFF                NOPR              
    5570    2B82         FFFFFF                NOPR              
    5571    2B84         FFFFFF                NOPR              
    5572    2B86         FFFFFF                NOPR              
    5573    2B88         FFFFFF                NOPR              
    5574    2B8A         FFFFFF                NOPR              
    5575    2B8C         FFFFFF                NOPR              
    5576    2B8E         FFFFFF                NOPR              
    5577    2B90         FFFFFF                NOPR              
    5578    2B92         FFFFFF                NOPR              
    5579    2B94         FFFFFF                NOPR              
    5580    2B96         FFFFFF                NOPR              
    5581    2B98         FFFFFF                NOPR              
    5582    2B9A         FFFFFF                NOPR              
    5583    2B9C         FFFFFF                NOPR              
    5584    2B9E         FFFFFF                NOPR              
    5585    2BA0         FFFFFF                NOPR              
    5586    2BA2         FFFFFF                NOPR              
    5587    2BA4         FFFFFF                NOPR              
    5588    2BA6         FFFFFF                NOPR              
    5589    2BA8         FFFFFF                NOPR              
    5590    2BAA         FFFFFF                NOPR              
    5591    2BAC         FFFFFF                NOPR              
    5592    2BAE         FFFFFF                NOPR              
    5593    2BB0         FFFFFF                NOPR              
    5594    2BB2         FFFFFF                NOPR              
    5595    2BB4         FFFFFF                NOPR              
    5596    2BB6         FFFFFF                NOPR              
    5597    2BB8         FFFFFF                NOPR              
    5598    2BBA         FFFFFF                NOPR              
    5599    2BBC         FFFFFF                NOPR              
    5600    2BBE         FFFFFF                NOPR              
    5601    2BC0         FFFFFF                NOPR              
    5602    2BC2         FFFFFF                NOPR              
    5603    2BC4         FFFFFF                NOPR              
    5604    2BC6         FFFFFF                NOPR              
    5605    2BC8         FFFFFF                NOPR              
    5606    2BCA         FFFFFF                NOPR              
    5607    2BCC         FFFFFF                NOPR              
    5608    2BCE         FFFFFF                NOPR              
    5609    2BD0         FFFFFF                NOPR              
    5610    2BD2         FFFFFF                NOPR              
    5611    2BD4         FFFFFF                NOPR              
    5612    2BD6         FFFFFF                NOPR              
    5613    2BD8         FFFFFF                NOPR              
    5614    2BDA         FFFFFF                NOPR              
    5615    2BDC         FFFFFF                NOPR              
    5616    2BDE         FFFFFF                NOPR              
    5617    2BE0         FFFFFF                NOPR              
    5618    2BE2         FFFFFF                NOPR              
    5619    2BE4         FFFFFF                NOPR              
    5620    2BE6         FFFFFF                NOPR              
    5621    2BE8         FFFFFF                NOPR              
    5622    2BEA         FFFFFF                NOPR              
    5623    2BEC         FFFFFF                NOPR              
    5624    2BEE         FFFFFF                NOPR              
    5625    2BF0         FFFFFF                NOPR              
    5626    2BF2         FFFFFF                NOPR              
    5627    2BF4         FFFFFF                NOPR              
    5628    2BF6         FFFFFF                NOPR              
    5629    2BF8         FFFFFF                NOPR              
    5630    2BFA         FFFFFF                NOPR              
    5631    2BFC         FFFFFF                NOPR              
    5632    2BFE         FFFFFF                NOPR              
